(dp0
S'class_sl'
p1
(dp2
S'G2'
p3
(I16
I33
tp4
sS'G1'
p5
(I0
I16
tp6
ssS'class_hierarchy'
p7
(dp8
g3
(lp9
S'G2_subcl'
p10
asg5
(lp11
S'G1_subcl'
p12
assS'feats'
p13
(dp14
S'Bacteria.Proteobacteria.Gammaproteobacteria.Pseudomonadales.Moraxellaceae.Alkanindiges'
p15
(lp16
F132.5004732159758
aF6063.659427460993
aF592.2234928933179
aF0.0
aF44.46618346747294
aF162.47540302926336
aF50.44305819447476
aF16015.225236547753
aF482.7575109022741
aF309.49212342545894
aF546.4480874316946
aF167.9793945276046
aF16.513367571048743
aF319.8504084243681
aF361.3197679946755
aF2063.746847053432
aF84.97043029025895
aF19.22929005461122
aF0.0
aF4885.652467254496
aF0.0
aF2956.537133752325
aF0.0
aF0.0
aF3144.4522877494664
aF62.88912647003336
aF0.0
aF0.0
aF18.76912104206157
aF0.0
aF17.642596284469207
aF0.0
aF0.0
asS'Bacteria.Firmicutes.Bacilli.Lactobacillales.Streptococcaceae'
p17
(lp18
F6416.8086314594
aF0.0
aF0.0
aF0.0
aF2156.6098981724426
aF0.0
aF0.0
aF0.0
aF0.0
aF0.0
aF34.153005464480884
aF130.65064018813703
aF66.05347028419507
aF73.81163271331562
aF0.0
aF0.0
aF118.95860240636249
aF18479.34774248136
aF0.0
aF0.0
aF0.0
aF0.0
aF0.0
aF0.0
aF0.0
aF0.0
aF0.0
aF32.749304077288365
aF18.76912104206157
aF0.0
aF0.0
aF0.0
aF0.0
asS'Bacteria.Firmicutes.Clostridia.Clostridiales.Eubacteriaceae'
p19
(lp20
F0.0
aF0.0
aF0.0
aF0.0
aF44.46618346747294
aF0.0
aF0.0
aF0.0
aF0.0
aF0.0
aF0.0
aF0.0
aF0.0
aF0.0
aF19.016829894456592
aF0.0
aF0.0
aF0.0
aF0.0
aF0.0
aF0.0
aF0.0
aF0.0
aF0.0
aF0.0
aF0.0
aF8736.148498010007
aF0.0
aF0.0
aF0.0
aF0.0
aF0.0
aF0.0
asS'Bacteria.Bacteroidetes.Cytophagia'
p21
(lp22
F18.928639030853716
aF11803.443870665915
aF0.0
aF163.433409057479
aF0.0
aF18.052822558807087
aF0.0
aF5583.783686733579
aF64.36766812030314
aF15.474606171272898
aF0.0
aF0.0
aF16.513367571048743
aF0.0
aF19.016829894456592
aF0.0
aF0.0
aF57.68787016383355
aF0.0
aF209.3851057394788
aF0.0
aF35.407630344339196
aF17.29864378632715
aF3927.0188593868656
aF0.0
aF293.48259019348853
aF20610.04409360396
aF0.0
aF544.3045102197858
aF0.0
aF0.0
aF0.0
aF0.0
asS'Bacteria.Actinobacteria.Actinobacteria.Actinomycetales.Streptomycetaceae.Streptomyces'
p23
(lp24
F56.78591709256104
aF53.97916404267946
aF20.421499754942023
aF16.343340905747898
aF0.0
aF108.3169353528419
aF0.0
aF0.0
aF949.4231047744717
aF15.474606171272898
aF0.0
aF354.6231662249425
aF115.59357299734162
aF0.0
aF760.6731957782637
aF493.8881343375718
aF33.988172116103556
aF0.0
aF0.0
aF23.26501174883091
aF0.0
aF0.0
aF34.5972875726543
aF242.40857156709026
aF1331.5792851183971
aF62.88912647003336
aF115.60120885835538
aF65.49860815457673
aF0.0
aF178.47581652686046
aF70.57038513787694
aF68.37606837606837
aF0.0
asS'Bacteria.Proteobacteria.Alphaproteobacteria.Caulobacterales.Caulobacteraceae.Asticcacaulis'
p25
(lp26
F0.0
aF0.0
aF0.0
aF0.0
aF0.0
aF0.0
aF0.0
aF5422.195091297559
aF0.0
aF15.474606171272898
aF0.0
aF0.0
aF0.0
aF0.0
aF0.0
aF0.0
aF0.0
aF0.0
aF0.0
aF0.0
aF0.0
aF0.0
aF0.0
aF0.0
aF0.0
aF209.63042156677753
aF16.51445840833647
aF0.0
aF0.0
aF0.0
aF0.0
aF0.0
aF0.0
asS'Bacteria.Proteobacteria.Alphaproteobacteria.Rhizobiales.Brucellaceae.Ochrobactrum'
p27
(lp28
F321.78686352451297
aF359.8610936178638
aF81.68599901976799
aF310.5234772092108
aF422.4287429409935
aF559.637499323019
aF67.25741092596634
aF11095.75021994003
aF6243.663807669414
aF1052.273219646561
aF3517.759562841537
aF167.9793945276046
aF66.05347028419507
aF270.642653282157
aF741.6563658838073
aF7919.849011341784
aF271.90537692882884
aF153.83432043688975
aF87.98479622721186
aF395.50519973012524
aF60.0024000960039
aF88.51907586084805
aF17.29864378632715
aF872.6708576415255
aF80.21561958544564
aF41.92608431335561
aF363.3180849834029
aF32.749304077288365
aF37.53824208412314
aF210.92596498629035
aF0.0
aF0.0
aF42.05833491052087
asS'Bacteria.Proteobacteria.Betaproteobacteria.Burkholderiales.Alcaligenaceae.Achromobacter'
p29
(lp30
F2744.6526594737816
aF35.986109361786376
aF653.487992158144
aF604.7036135126745
aF0.0
aF54.15846767642116
aF0.0
aF1508.1602240695174
aF96.55150218045482
aF0.0
aF102.45901639344265
aF0.0
aF0.0
aF147.623265426631
aF0.0
aF105.83317164376582
aF16.994086058051828
aF57.68787016383355
aF140.77567396353888
aF93.06004699532365
aF25681.027241089676
aF0.0
aF86.49321893163578
aF0.0
aF48.12937175126734
aF62.88912647003336
aF280.7457929417211
aF0.0
aF187.69121042061568
aF0.0
aF0.0
aF22.792022792022756
aF21.029167455260435
asS'Bacteria.Proteobacteria.Gammaproteobacteria.Enterobacteriales.Enterobacteriaceae'
p31
(lp32
F473783.8349422676
aF5775.770552566707
aF230272.83123672602
aF555.6735907954298
aF190315.26524078415
aF319480.8008232087
aF4556.689590234219
aF14094.116379697334
aF2848.269314323416
aF1067.747825817832
aF121345.62841530019
aF1847.7733398036528
aF363.29408656307277
aF159999.015844897
aF161433.86897404215
aF33937.17037376745
aF351352.7292502208
aF373682.7936312596
aF559917.6462307305
aF348.97517623246364
aF900.036001440058
aF424.89156413207036
aF14254.082479933528
aF5623.878860356499
aF3385.0991465058028
aF754.6695176404
aF974.3530460918535
aF8760.438840674642
aF2665.2151879727503
aF146.02566806743155
aF109701.66369682964
aF26210.826210826213
aF303492.94471431855
asS'Bacteria.Proteobacteria.Alphaproteobacteria.Caulobacterales.Caulobacteraceae.Brevundimonas'
p33
(lp34
F15218.625780806326
aF74113.39223059898
aF5207.482437510209
aF85116.11943713528
aF778.158210680777
aF1209.5391114400684
aF605.3166983336974
aF19498.35718261311
aF28756.255732745434
aF11280.987898857975
aF9562.84153005465
aF26036.80615177872
aF42984.29578743987
aF12351.14654069484
aF56575.06893600834
aF9648.457481523285
aF1053.6333355992115
aF1326.8210137681742
aF5754.205673259653
aF166321.5689923918
aF246209.84839393626
aF66566.34504735774
aF4774.425685026289
aF65935.13146624864
aF9160.623756657891
aF104731.35861476231
aF9115.981041401754
aF7188.472244964796
aF103211.39661029668
aF125208.89783070798
aF1146.7687584905004
aF478.6324786324785
aF988.3708703972407
asS'Bacteria.Bacteroidetes.Bacteroidia.Bacteroidales.Bacteroidaceae'
p35
(lp36
F473.21597577134185
aF485.812476384116
aF388.0084953438977
aF0.0
aF600.2934768108852
aF505.4790316465976
aF252.2152909723738
aF0.0
aF0.0
aF0.0
aF443.9890710382517
aF93.32188584866924
aF396.32082170517066
aF639.7008168487351
aF0.0
aF176.38861940627535
aF220.92311875467306
aF249.98077070994583
aF334.3422256634051
aF372.24018798129504
aF500.02000080003165
aF0.0
aF17.29864378632715
aF0.0
aF0.0
aF754.6695176404
aF231.20241771671076
aF0.0
aF112.61472625236962
aF308.2764103645771
aF0.0
aF136.75213675213718
aF168.23333964208328
asS'Bacteria.Actinobacteria.Actinobacteria.Actinomycetales.Micrococcaceae.Arthrobacter'
p37
(lp38
F1022.1465076660992
aF104233.76576641368
aF1592.8769808854806
aF7517.936816644052
aF689.2258437458311
aF45077.897929341285
aF193734.97217224588
aF28906.40429466574
aF128365.22214891425
aF537525.9199653367
aF785.5191256830606
aF36414.19985815076
aF15208.811532935939
aF615.0969392776301
aF29932.490253874723
aF217152.02935106654
aF900.6865610767452
aF3038.2278286285623
aF1038.2205954810986
aF41737.43107740269
aF3840.153606144247
aF32645.835177480803
aF43713.67284804867
aF5737.002860421146
aF44888.66072001538
aF9726.851560698491
aF15804.336696777986
aF8318.323235631242
aF13832.842207999405
aF2855.6130644297696
aF6615.973606675963
aF9185.185185185177
aF2523.5000946312543
asS'Bacteria.Proteobacteria.Gammaproteobacteria.Pseudomonadales.Moraxellaceae.Psychrobacter'
p39
(lp40
F0.0
aF35.986109361786376
aF0.0
aF0.0
aF22.23309173373647
aF0.0
aF437.17317101878166
aF0.0
aF949.4231047744717
aF1918.8511652378413
aF0.0
aF0.0
aF0.0
aF0.0
aF0.0
aF0.0
aF33.988172116103556
aF38.45858010922233
aF105.58175547265468
aF0.0
aF0.0
aF513.4106399929186
aF6417.79684472737
aF0.0
aF112.30186741962423
aF0.0
aF0.0
aF180.12117242508634
aF0.0
aF0.0
aF1023.2705844992104
aF205.12820512820522
aF42.05833491052087
asS'Bacteria.Bacteroidetes.Flavobacteriia.Flavobacteriales.Flavobacteriaceae.Epilithonimonas'
p41
(lp42
F0.0
aF17.993054680893188
aF0.0
aF16.343340905747898
aF0.0
aF0.0
aF67.25741092596634
aF0.0
aF0.0
aF0.0
aF0.0
aF0.0
aF0.0
aF0.0
aF19.016829894456592
aF17.638861940627535
aF0.0
aF0.0
aF0.0
aF6118.698089942537
aF0.0
aF0.0
aF0.0
aF0.0
aF0.0
aF524.0760539169443
aF16.51445840833647
aF0.0
aF0.0
aF0.0
aF0.0
aF45.58404558404551
aF0.0
asS'Bacteria.Proteobacteria.Gammaproteobacteria.Oceanospirillales.Halomonadaceae'
p43
(lp44
F0.0
aF0.0
aF0.0
aF0.0
aF0.0
aF18.052822558807087
aF0.0
aF0.0
aF0.0
aF0.0
aF0.0
aF0.0
aF16.513367571048743
aF0.0
aF0.0
aF0.0
aF0.0
aF0.0
aF35.19391849088472
aF46.53002349766182
aF0.0
aF0.0
aF0.0
aF0.0
aF0.0
aF0.0
aF17951.216289861786
aF0.0
aF0.0
aF0.0
aF0.0
aF0.0
aF210.29167455260435
asS'Bacteria.Firmicutes.Clostridia.Clostridiales.Peptostreptococcaceae'
p45
(lp46
F18.928639030853716
aF35.986109361786376
aF40.842999509884045
aF114.4033863402354
aF0.0
aF18.052822558807087
aF0.0
aF538.6286514533999
aF1705.7432051880382
aF232.11909256909448
aF0.0
aF0.0
aF0.0
aF0.0
aF38.033659788913184
aF0.0
aF0.0
aF0.0
aF0.0
aF0.0
aF0.0
aF35.407630344339196
aF0.0
aF290.8902858805085
aF80.21561958544564
aF0.0
aF297.2602513500569
aF16.374652038644232
aF18.76912104206157
aF0.0
aF17.642596284469207
aF22.792022792022756
aF0.0
asS'Bacteria.Proteobacteria.Gammaproteobacteria'
p47
(lp48
F571342.0405072877
aF430501.8262950498
aF463384.25093938934
aF537058.5255037835
aF490973.36475610326
aF357500.0451320565
aF307853.9841608792
aF147045.6218467776
aF60956.18170992717
aF261954.13326730827
aF625170.7650273227
aF182015.006159244
aF406460.02939379384
aF605156.9727389036
aF591879.813635067
aF428800.73377665674
aF450734.1445177078
aF719771.5560341516
aF740216.090659534
aF276993.2298815811
aF120184.80739229605
aF325466.9381251661
aF574072.7926930528
aF187220.22010698277
aF301947.63524353475
aF384797.60182797763
aF254520.83298928227
aF409513.6728344523
aF487340.2278571291
aF179076.14427336038
aF469822.33905541553
aF555578.3475783471
aF885012.5123546354
asS'Bacteria.Actinobacteria.Actinobacteria'
p49
(lp50
F85746.7348097672
aF141047.55564352171
aF27201.43767358274
aF18075.735041757278
aF7625.950464671615
aF93206.72287112082
aF207169.64000470843
aF96701.79722426705
aF658175.4984471304
aF648726.4399121046
aF19262.295081967197
aF135596.70013811605
aF522020.5756559935
aF12498.769806121447
aF95122.1831320719
aF312578.2724498614
aF9278.770987696278
aF9941.54295823398
aF4399.239811360598
aF52602.191564106746
aF22800.91203648146
aF105426.21935027046
aF108964.15721007428
aF35520.9360202977
aF62038.760187383676
aF59451.18755633821
aF38511.717008240696
aF13640.085148190585
aF64096.548358640386
aF76549.90021579346
aF43206.71830066511
aF45424.50142450144
aF6287.721069122875
asS'Bacteria.Proteobacteria.Alphaproteobacteria.Rhodospirillales'
p51
(lp52
F94.64319515426847
aF0.0
aF11558.568861297144
aF0.0
aF133.39855040241883
aF0.0
aF0.0
aF12334.596118282827
aF128.7353362406065
aF30.9492123425459
aF23155.737704918014
aF0.0
aF0.0
aF295.246530853262
aF76.06731957782637
aF0.0
aF0.0
aF0.0
aF0.0
aF0.0
aF0.0
aF17.703815172169648
aF0.0
aF0.0
aF32.086247834178295
aF20.96304215667775
aF0.0
aF32.749304077288365
aF0.0
aF0.0
aF0.0
aF0.0
aF0.0
asS'Bacteria.Firmicutes.Negativicutes.Selenomonadales.Veillonellaceae.Pelosinus'
p53
(lp54
F0.0
aF0.0
aF326.7439960790726
aF16.343340905747898
aF155.63164213615585
aF0.0
aF0.0
aF0.0
aF0.0
aF0.0
aF0.0
aF0.0
aF0.0
aF98.4155102844208
aF0.0
aF0.0
aF0.0
aF19.22929005461122
aF2058.844231716759
aF23.26501174883091
aF0.0
aF0.0
aF4722.529753667309
aF0.0
aF0.0
aF20.96304215667775
aF132.11566726669216
aF0.0
aF0.0
aF16.22507422971465
aF0.0
aF16957.264957264942
aF33015.79290475888
asS'Bacteria.Bacteroidetes.Sphingobacteriia.Sphingobacteriales'
p55
(lp56
F11413.969335604745
aF31235.942926030537
aF278876.0006534881
aF132135.91122297168
aF214771.66614789463
aF8502.879425198127
aF113732.28187580894
aF218306.1924340623
aF1850.570458458715
aF2986.598991055683
aF70081.96721311472
aF653.2532009406841
aF379.80745413412177
aF143711.24889282545
aF7796.900256727202
aF104704.2844795651
aF24964.31241927809
aF25863.39512345209
aF7302.738086858586
aF335388.4093711468
aF263090.52362094494
aF33318.580154023155
aF66150.013838915
aF91856.68805248945
aF22813.322210100774
aF228287.52908622078
aF77006.91955807315
aF91026.69068282295
aF66611.6105782766
aF48.67522268914385
aF23941.00315802478
aF141629.62962962978
aF50932.6435766408
asS'Bacteria.Proteobacteria.Gammaproteobacteria.Enterobacteriales.Enterobacteriaceae.Unassigned'
p57
(lp58
F358565.2091614611
aF287.8888748942902
aF182956.216304526
aF212.46343177472363
aF156009.6046956295
aF282887.7294965069
aF252.2152909723738
aF11634.37887139348
aF997.6988558647
aF402.33976045309635
aF118476.77595628427
aF933.2188584866925
aF132.10694056839057
aF134903.0607223696
aF133422.07853950732
aF1234.7203358439347
aF62011.42002583098
aF84128.14398892387
aF272840.85310058366
aF139.5900704929859
aF180.00720028801163
aF177.0381517216965
aF1262.8009964018775
aF404.01428594515113
aF224.6037348392475
aF356.3717166635223
aF297.2602513500569
aF949.7298182413626
aF243.99857354680051
aF32.4501484594292
aF25705.26278647168
aF5082.621082621082
aF60080.331419679125
asS'Bacteria.Firmicutes.Clostridia.Clostridiales.Lachnospiraceae.Blautia'
p59
(lp60
F151.42911224682993
aF89.96527340446583
aF204.21499754942022
aF0.0
aF422.4287429409935
aF288.84516094091276
aF84.07176365745804
aF17.954288381779996
aF0.0
aF0.0
aF239.071038251366
aF37.32875433946768
aF165.13367571048744
aF295.246530853262
aF0.0
aF141.1108955250211
aF101.96451634831057
aF96.14645027305589
aF140.77567396353888
aF139.5900704929859
aF80.00320012800518
aF0.0
aF0.0
aF0.0
aF0.0
aF377.33475882020053
aF214.68795930837504
aF0.0
aF56.30736312618481
aF113.57551960800266
aF0.0
aF45.58404558404551
aF84.11666982104174
asS'Bacteria.Actinobacteria.Actinobacteria.Actinomycetales.Cellulomonadaceae'
p61
(lp62
F0.0
aF0.0
aF102.10749877471002
aF0.0
aF555.8272933434123
aF0.0
aF0.0
aF35.90857676355999
aF16.091917030075837
aF0.0
aF102.45901639344265
aF0.0
aF0.0
aF0.0
aF0.0
aF17.638861940627535
aF0.0
aF0.0
aF0.0
aF0.0
aF0.0
aF0.0
aF5570.163299197338
aF0.0
aF0.0
aF41.92608431335561
aF49.54337522500951
aF0.0
aF0.0
aF0.0
aF0.0
aF0.0
aF0.0
asS'Bacteria.Actinobacteria.Actinobacteria.Actinomycetales.Dermacoccaceae'
p63
(lp64
F18.928639030853716
aF0.0
aF81.68599901976799
aF32.6866818114959
aF22.23309173373647
aF36.10564511761417
aF0.0
aF0.0
aF0.0
aF0.0
aF0.0
aF55.99313150920157
aF0.0
aF369.05816356657806
aF399.35342778358824
aF317.49951493129646
aF186.9349466385692
aF57.68787016383355
aF211.16351094530833
aF116.32505874415456
aF0.0
aF601.9297158537669
aF51.895931358981464
aF0.0
aF224.6037348392475
aF0.0
aF0.0
aF65.49860815457673
aF0.0
aF0.0
aF14996.206841798807
aF273.5042735042733
aF357.49584673942763
asS'Bacteria.Bacteroidetes.Bacteroidia.Bacteroidales.Bacteroidaceae.Bacteroides'
p65
(lp66
F473.21597577134185
aF485.812476384116
aF388.0084953438977
aF0.0
aF600.2934768108852
aF505.4790316465976
aF252.2152909723738
aF0.0
aF0.0
aF0.0
aF443.9890710382517
aF93.32188584866924
aF396.32082170517066
aF639.7008168487351
aF0.0
aF176.38861940627535
aF220.92311875467306
aF249.98077070994583
aF334.3422256634051
aF372.24018798129504
aF500.02000080003165
aF0.0
aF17.29864378632715
aF0.0
aF0.0
aF754.6695176404
aF231.20241771671076
aF0.0
aF112.61472625236962
aF308.2764103645771
aF0.0
aF136.75213675213718
aF168.23333964208328
asS'Bacteria.Firmicutes.Bacilli.Bacillales.Bacillales_Incertae_Sedis_XII.Exiguobacterium'
p67
(lp68
F321.78686352451297
aF129298.09093689869
aF735.1739911779121
aF931.5704316276335
aF2290.0084485748625
aF11355.22538948967
aF182486.1701948779
aF4704.023556026358
aF15287.321178571961
aF10909.597350747432
aF614.7540983606561
aF66594.49774161036
aF7810.822861106067
aF1057.9667355575243
aF27574.40334696202
aF7461.238600885472
aF0.0
aF44592.723636643335
aF140.77567396353888
aF16564.68836516766
aF120.00480019200741
aF240754.1825263344
aF62586.49321893166
aF1939.2685725367198
aF340884.29699030955
aF1970.5259627277078
aF29726.025135005682
aF408891.43605698383
aF581.8427523039094
aF81.12537114857305
aF64254.33566803695
aF21492.87749287746
aF63.08750236578131
asS'Bacteria.Proteobacteria.Alphaproteobacteria.Sphingomonadales.Sphingomonadaceae.Sphingopyxis'
p69
(lp70
F18.928639030853716
aF0.0
aF20.421499754942023
aF16.343340905747898
aF0.0
aF36.10564511761417
aF0.0
aF7020.126757275979
aF0.0
aF0.0
aF136.6120218579231
aF0.0
aF0.0
aF49.2077551422104
aF38.033659788913184
aF17.638861940627535
aF0.0
aF0.0
aF0.0
aF0.0
aF0.0
aF0.0
aF0.0
aF0.0
aF0.0
aF0.0
aF0.0
aF0.0
aF0.0
aF0.0
aF0.0
aF0.0
aF0.0
asS'Bacteria.Proteobacteria.Gammaproteobacteria.Enterobacteriales.Enterobacteriaceae.Pectobacterium'
p71
(lp72
F0.0
aF0.0
aF0.0
aF0.0
aF9337.89852816933
aF0.0
aF0.0
aF0.0
aF16.091917030075837
aF0.0
aF0.0
aF37.32875433946768
aF0.0
aF0.0
aF0.0
aF0.0
aF0.0
aF0.0
aF0.0
aF0.0
aF0.0
aF0.0
aF363.27151951287004
aF0.0
aF0.0
aF0.0
aF0.0
aF0.0
aF0.0
aF0.0
aF0.0
aF0.0
aF0.0
asS'Bacteria.Proteobacteria.Alphaproteobacteria.Rhizobiales.Phyllobacteriaceae'
p73
(lp74
F56.78591709256104
aF107.95832808535933
aF0.0
aF32.6866818114959
aF0.0
aF18.052822558807087
aF0.0
aF897.7144190889989
aF2462.0633056015977
aF263.06830491164027
aF0.0
aF18.664377169733893
aF0.0
aF24.6038775711052
aF0.0
aF0.0
aF0.0
aF19.22929005461122
aF17.59695924544241
aF0.0
aF0.0
aF0.0
aF0.0
aF258.5691430048963
aF16.043123917089147
aF20.96304215667775
aF82.57229204168254
aF0.0
aF0.0
aF81.12537114857305
aF17.642596284469207
aF0.0
aF0.0
asS'Bacteria.Actinobacteria.Actinobacteria.Actinomycetales.Nocardioidaceae.Nocardioides'
p75
(lp76
F397.50141964792743
aF4498.263670223292
aF0.0
aF0.0
aF0.0
aF0.0
aF0.0
aF520.6743630716194
aF177.0110873308338
aF0.0
aF0.0
aF0.0
aF0.0
aF0.0
aF19.016829894456592
aF0.0
aF0.0
aF0.0
aF0.0
aF0.0
aF0.0
aF141.63052137735679
aF51.895931358981464
aF0.0
aF16.043123917089147
aF0.0
aF0.0
aF0.0
aF0.0
aF16.22507422971465
aF0.0
aF0.0
aF0.0
asS'Bacteria.Proteobacteria.Alphaproteobacteria.Rhizobiales.Rhizobiaceae.Unassigned'
p77
(lp78
F56.78591709256104
aF17.993054680893188
aF20.421499754942023
aF16.343340905747898
aF0.0
aF0.0
aF0.0
aF10215.99008923281
aF32.18383406015157
aF15.474606171272898
aF0.0
aF93.32188584866924
aF0.0
aF24.6038775711052
aF190.16829894456592
aF299.86065299066877
aF0.0
aF19.22929005461122
aF0.0
aF69.79503524649273
aF0.0
aF53.111445516508844
aF0.0
aF694.9045718256596
aF0.0
aF167.704337253422
aF82.57229204168254
aF0.0
aF450.4589050094785
aF11730.728668083622
aF0.0
aF0.0
aF0.0
asS'Bacteria.Firmicutes.Bacilli.Lactobacillales.Aerococcaceae'
p79
(lp80
F18.928639030853716
aF35.986109361786376
aF142.95049828459406
aF65.3733636229918
aF266.79710080483767
aF32170.12979979416
aF0.0
aF17.954288381779996
aF160.91917030075837
aF15.474606171272898
aF0.0
aF298.63003471574166
aF16.513367571048743
aF221.43489813994705
aF20271.94066749074
aF17.638861940627535
aF118.95860240636249
aF249.98077070994583
aF2322.7986203983905
aF0.0
aF0.0
aF0.0
aF0.0
aF0.0
aF0.0
aF20.96304215667775
aF0.0
aF16.374652038644232
aF0.0
aF194.7008907565754
aF123.49817399128506
aF22.792022792022756
aF0.0
asS'Bacteria.Proteobacteria.Gammaproteobacteria.Pseudomonadales.Moraxellaceae.Enhydrobacter'
p81
(lp82
F75.71455612341475
aF0.0
aF5472.961934324457
aF65.3733636229918
aF3757.3925030014707
aF216.6338707056848
aF16.814352731491585
aF1992.9260103775794
aF836.7796855639417
aF0.0
aF3312.841530054651
aF1922.4308484825879
aF82.56683785524382
aF30656.431453597135
aF29476.086336407763
aF35.27772388125517
aF67.97634423220711
aF19.22929005461122
aF35.19391849088472
aF0.0
aF20.00080003200127
aF389.48393378773164
aF0.0
aF16.160571437805984
aF48.12937175126734
aF0.0
aF16.51445840833647
aF32.749304077288365
aF0.0
aF64.9002969188584
aF1781.9022247313908
aF22.792022792022756
aF252.35000946312542
asS'Bacteria.Bacteroidetes'
p83
(lp84
F21805.792163543505
aF195962.358529608
aF310856.06926972704
aF263814.2089005836
aF283983.28071501583
aF26537.649161446374
aF119835.89191734097
aF350000.89771441964
aF6790.788986691988
aF13958.094766488171
aF150546.44808743187
aF877.2257269774907
aF1007.3154218339747
aF149739.19889774636
aF13444.89873538079
aF214717.8664032591
aF25864.998980354776
aF33458.96469502342
aF27011.33244175405
aF441127.88776958326
aF510800.43201728084
aF219332.56616800887
aF182085.5244948792
aF287803.616735888
aF184255.27818776877
aF274028.88707209233
aF149984.31126451187
aF101408.22007532326
aF161451.97920381394
aF162477.89333636238
aF87736.63132266547
aF187783.47578347588
aF51332.19775829077
asS'Bacteria.Proteobacteria.Alphaproteobacteria.Rhodobacterales.Rhodobacteraceae.Cereibacter'
p85
(lp86
F0.0
aF0.0
aF81.68599901976799
aF0.0
aF44.46618346747294
aF18.052822558807087
aF16.814352731491585
aF251.36003734492
aF112.64341921053106
aF0.0
aF0.0
aF0.0
aF16.513367571048743
aF0.0
aF57.05048968336978
aF17.638861940627535
aF33.988172116103556
aF0.0
aF35.19391849088472
aF0.0
aF0.0
aF17.703815172169648
aF34.5972875726543
aF517.1382860097926
aF48.12937175126734
aF72322.49544053838
aF45678.991957458726
aF0.0
aF8690.103042474517
aF0.0
aF0.0
aF0.0
aF0.0
asS'Bacteria.Firmicutes.Clostridia.Clostridiales.Lachnospiraceae.Clostridium_XlVb'
p87
(lp88
F18.928639030853716
aF0.0
aF0.0
aF0.0
aF15540.931121881764
aF18.052822558807087
aF0.0
aF0.0
aF0.0
aF0.0
aF34.153005464480884
aF0.0
aF0.0
aF3198.5040842436806
aF0.0
aF17.638861940627535
aF0.0
aF0.0
aF0.0
aF0.0
aF0.0
aF0.0
aF34.5972875726543
aF0.0
aF0.0
aF0.0
aF0.0
aF0.0
aF0.0
aF0.0
aF0.0
aF0.0
aF0.0
asS'Bacteria.Firmicutes.Bacilli.Lactobacillales.Enterococcaceae.Enterococcus'
p89
(lp90
F58167.707741813356
aF17.993054680893188
aF21299.624244404553
aF32.6866818114959
aF8648.672684423495
aF559.637499323019
aF16.814352731491585
aF89.7714419089
aF193.10300436090918
aF0.0
aF1912.56830601093
aF205.3081488670722
aF66.05347028419507
aF5117.606534789885
aF551.4880669392414
aF0.0
aF494188.02256814594
aF269.21006076455706
aF10399.802914056474
aF0.0
aF80.00320012800518
aF17.703815172169648
aF0.0
aF16.160571437805984
aF0.0
aF377.33475882020053
aF198.17350090003822
aF605.8621254298351
aF0.0
aF81.12537114857305
aF176.42596284469207
aF113.96011396011379
aF42.05833491052087
asS'Bacteria.Firmicutes.Clostridia.Clostridiales.Peptococcaceae_1'
p91
(lp92
F0.0
aF0.0
aF0.0
aF0.0
aF956.0229445506687
aF0.0
aF0.0
aF0.0
aF0.0
aF0.0
aF0.0
aF0.0
aF0.0
aF0.0
aF0.0
aF0.0
aF0.0
aF0.0
aF0.0
aF0.0
aF0.0
aF0.0
aF0.0
aF0.0
aF0.0
aF0.0
aF4293.75918616749
aF0.0
aF0.0
aF0.0
aF0.0
aF0.0
aF0.0
asS'Bacteria.Actinobacteria.Actinobacteria.Actinomycetales.Propionibacteriaceae.Propionibacterium'
p93
(lp94
F56.78591709256104
aF17.993054680893188
aF0.0
aF49.0300227172438
aF0.0
aF90.26411279403533
aF16.814352731491585
aF466.81149792627997
aF756.3201004135624
aF139.27145554145608
aF0.0
aF18.664377169733893
aF33.026735142097486
aF0.0
aF570.5048968336978
aF17.638861940627535
aF152.94677452246634
aF19.22929005461122
aF35.19391849088472
aF0.0
aF20.00080003200127
aF0.0
aF121.09050650428965
aF177.7662858158659
aF32.086247834178295
aF0.0
aF115.60120885835538
aF0.0
aF18.76912104206157
aF64.9002969188584
aF388.1371182583232
aF136.75213675213718
aF0.0
asS'Bacteria.Firmicutes.Bacilli.Bacillales.Planococcaceae'
p95
(lp96
F18.928639030853716
aF4516.256724904185
aF102.10749877471002
aF4314.641999117462
aF0.0
aF4260.466123878463
aF105459.6203319152
aF574.5372282169599
aF31894.17955361024
aF6096.994831481544
aF68.30601092896177
aF5039.381835828139
aF7298.908466403548
aF0.0
aF817.723685461634
aF1164.164888081418
aF0.0
aF0.0
aF0.0
aF23.26501174883091
aF0.0
aF885.1907586084805
aF432.46609465817886
aF113.12400006464262
aF18898.79997433097
aF293.48259019348853
aF11361.94738493553
aF81.87326019322094
aF150.1529683364932
aF32.4501484594292
aF35.28519256893841
aF0.0
aF0.0
asS'Bacteria.Actinobacteria.Actinobacteria.Actinomycetales.Propionibacteriaceae.Luteococcus'
p97
(lp98
F0.0
aF0.0
aF0.0
aF0.0
aF0.0
aF0.0
aF0.0
aF0.0
aF0.0
aF0.0
aF0.0
aF0.0
aF0.0
aF0.0
aF0.0
aF0.0
aF16.994086058051828
aF0.0
aF0.0
aF0.0
aF0.0
aF637.3373461981055
aF2352.6155549404957
aF0.0
aF272.7331065905147
aF0.0
aF0.0
aF0.0
aF0.0
aF941.0543053234471
aF0.0
aF364.6723646723648
aF0.0
asS'Bacteria.Proteobacteria'
p99
(lp100
F601400.7192882834
aF513053.9611709874
aF528018.2976637805
aF708876.0684459113
aF500600.2934768114
aF364937.8080262851
aF334134.8174802008
aF441549.8141731149
aF259385.6106077915
aF310652.718888304
aF786851.0928961748
aF209470.30497592315
aF451739.68327361014
aF638396.8113374673
aF653741.5612817344
aF455876.3868555203
aF460862.61980830634
aF737981.6937158683
aF780319.5607798966
aF485284.88006886403
aF462298.49193967733
aF399822.9618482785
aF593118.5995017989
aF636742.6752209952
aF352996.8555477122
aF629687.8603022875
aF735933.8100506992
aF446356.6399214016
aF769008.4273353477
aF709181.7695065961
aF609445.846050705
aF705891.7378917375
aF889302.4625155091
asS'Bacteria.Actinobacteria.Actinobacteria.Actinomycetales.Microbacteriaceae'
p101
(lp102
F2933.939049782323
aF13512.78406535079
aF3287.861460545659
aF6030.692794220992
aF511.36110987593935
aF2419.078222880147
aF8693.020362181154
aF20701.29450419235
aF472796.6142606568
aF104267.8963820369
aF5225.409836065581
aF67658.36724028515
aF256254.4379675351
aF3124.6924515303567
aF11200.91280783493
aF17039.140634646283
aF2056.2844130242643
aF2115.221906007234
aF545.5057366087135
aF8049.694065095498
aF14220.568822752952
aF13986.01398601398
aF4739.828397453635
aF18810.905153606174
aF3962.65160752102
aF10733.077584219061
aF14929.070401136196
aF1178.9749467823863
aF19876.499183543237
aF72282.7056933786
aF458.7075033962002
aF1481.4814814814836
aF378.5250141946877
asS'Bacteria.Firmicutes.Clostridia.Clostridiales.Ruminococcaceae'
p103
(lp104
F302.85822449365884
aF305.88192957518413
aF714.7524914229704
aF0.0
aF911.5567610831959
aF812.3770151463178
aF571.6879928707145
aF17.954288381779996
aF0.0
aF0.0
aF443.9890710382517
aF130.65064018813703
aF495.40102713146234
aF565.8891841354201
aF19.016829894456592
aF423.3326865750623
aF169.9408605805183
aF384.58580109222333
aF158.372633208981
aF465.30023497661824
aF340.0136005440221
aF0.0
aF86.49321893163578
aF0.0
aF0.0
aF712.7434333270446
aF495.43375225009504
aF0.0
aF168.92208937855446
aF178.47581652686046
aF17.642596284469207
aF159.54415954415953
aF189.26250709734433
asS'Bacteria.Firmicutes.Bacilli.Bacillales.Bacillaceae_2'
p105
(lp106
F94.64319515426847
aF0.0
aF183.79349779447853
aF0.0
aF44.46618346747294
aF649.9016121170545
aF0.0
aF53.862865145339995
aF0.0
aF0.0
aF34.153005464480884
aF1829.1089626339162
aF0.0
aF0.0
aF798.7068555671776
aF0.0
aF0.0
aF0.0
aF0.0
aF0.0
aF0.0
aF0.0
aF0.0
aF0.0
aF0.0
aF0.0
aF0.0
aF0.0
aF0.0
aF0.0
aF0.0
aF0.0
aF0.0
asS'Bacteria.Firmicutes.Bacilli.Bacillales.Bacillaceae_1'
p107
(lp108
F170.35775127768304
aF107.95832808535933
aF469.6944943636666
aF719.1069998529099
aF4001.9565120725647
aF6896.178217464302
aF50.44305819447476
aF7630.572562256491
aF1464.3644497368966
aF0.0
aF4713.114754098361
aF153309.19407219393
aF16.513367571048743
aF910.3434701308933
aF1179.0434534563105
aF105.83317164376582
aF101.96451634831057
aF249.98077070994583
aF211.16351094530833
aF0.0
aF20.00080003200127
aF2602.460830308928
aF1660.6698034874075
aF500.97771457198655
aF80.21561958544564
aF62.88912647003336
aF330.2891681667304
aF16.374652038644232
aF75.07648416824638
aF584.1026722697262
aF246.99634798256912
aF136.75213675213718
aF84.11666982104174
asS'Bacteria.Bacteroidetes.Flavobacteriia.Flavobacteriales.Flavobacteriaceae'
p109
(lp110
F9899.678213136476
aF152437.15925652732
aF31592.060120895287
aF131514.86426855347
aF68611.3210903108
aF17511.23788204283
aF5851.394750559079
aF121388.94374921409
aF4875.850860112962
aF10956.021169261276
aF80020.49180327868
aF130.65064018813703
aF214.67377842363427
aF5388.249188072043
aF5628.981648759154
aF109837.193304288
aF679.7634423220711
aF7287.900930697641
aF19374.25212923201
aF105157.85310471582
aF247209.88839553637
aF185978.57838364126
aF115900.91336839159
aF192019.9098240115
aF161441.9559776675
aF44693.205878037086
aF52136.14519511838
aF10381.529392500397
aF94183.44938906505
aF162120.94170330846
aF63795.628164640686
aF46017.094017094045
aF231.3208420078644
asS'Bacteria.Actinobacteria.Actinobacteria.Actinomycetales.Sanguibacteraceae'
p111
(lp112
F18.928639030853716
aF377.8541482987567
aF5084.953438980557
aF1846.7975223495189
aF444.66183467472945
aF902.6411279403533
aF538.0592874077315
aF89.7714419089
aF0.0
aF15.474606171272898
aF102.45901639344265
aF186.6437716973389
aF16.513367571048743
aF172.22714299773602
aF646.5722164115244
aF864.3042350907511
aF2294.2016178369954
aF2595.9541573725146
aF1478.1445766171614
aF23.26501174883091
aF40.00160006400254
aF48827.12224484374
aF47588.569056186025
aF6464.2285751224135
aF6176.602708079313
aF3102.530239188315
aF2212.9374267170933
aF2407.0738496806935
aF26839.84309014812
aF0.0
aF18895.220620666518
aF32615.384615384588
aF2607.6167644522984
asS'Bacteria.Firmicutes.Bacilli.Bacillales'
p113
(lp114
F2006.4357372704858
aF143476.61802544232
aF49808.03790230359
aF6635.396407733663
aF29125.350171194816
aF56415.07049627207
aF330486.1029374679
aF101298.09505000272
aF57721.706386881924
aF19312.30850174866
aF23463.114754098355
aF650546.8662510727
aF18973.859339135015
aF19240.23226060428
aF139203.19482742224
aF10424.567406910865
aF1393.5150567602502
aF142469.81001461454
aF8164.989089885264
aF16681.01342391179
aF340.0136005440221
aF254209.08205718346
aF105677.41489067298
aF34826.03144847196
aF371093.499326189
aF2746.158522524789
aF45051.442537942006
aF417831.99607008375
aF1332.60759398637
aF1314.231012606879
aF73322.63015825409
aF41504.273504273486
aF13879.250520471884
asS'Bacteria.Proteobacteria.Alphaproteobacteria.Rhizobiales.Rhizobiaceae'
p115
(lp116
F2082.1502933939023
aF4246.360904690791
aF571.8019931383762
aF147.09006815173183
aF177.86473386989175
aF595.743144440633
aF470.8018764817646
aF50613.13894823775
aF1045.974606954923
aF278.5429110829132
aF4474.043715846997
aF186.6437716973389
aF165.13367571048744
aF811.9279598464722
aF2434.1542264904447
aF5891.379888169617
aF407.8580653932433
aF442.273671256057
aF175.96959245442412
aF3117.5115743433416
aF20.00080003200127
aF3222.0943613348722
aF242.18101300858035
aF278624.4121592142
aF352.9487261759605
aF21487.11821059476
aF355688.40519875166
aF180.12117242508634
aF8502.411832053906
aF264452.484870118
aF88.21298142234615
aF250.71225071225098
aF63.08750236578131
asS'Bacteria.Proteobacteria.Alphaproteobacteria.Rhodobacterales'
p117
(lp118
F0.0
aF0.0
aF81.68599901976799
aF16.343340905747898
aF44.46618346747294
aF54.15846767642116
aF16.814352731491585
aF484.76578630805943
aF112.64341921053106
aF15.474606171272898
aF0.0
aF0.0
aF16.513367571048743
aF0.0
aF76.06731957782637
aF17.638861940627535
aF84.97043029025895
aF0.0
aF70.38783698176955
aF0.0
aF0.0
aF17.703815172169648
aF51.895931358981464
aF517.1382860097926
aF80.21561958544564
aF74272.05836110935
aF47181.807672617346
aF0.0
aF8690.103042474517
aF0.0
aF0.0
aF0.0
aF0.0
asS'Bacteria.Firmicutes.Bacilli.Lactobacillales.Aerococcaceae.Aerococcus'
p119
(lp120
F18.928639030853716
aF35.986109361786376
aF142.95049828459406
aF65.3733636229918
aF266.79710080483767
aF32170.12979979416
aF0.0
aF17.954288381779996
aF160.91917030075837
aF15.474606171272898
aF0.0
aF298.63003471574166
aF16.513367571048743
aF221.43489813994705
aF20271.94066749074
aF17.638861940627535
aF118.95860240636249
aF249.98077070994583
aF2322.7986203983905
aF0.0
aF0.0
aF0.0
aF0.0
aF0.0
aF0.0
aF20.96304215667775
aF0.0
aF16.374652038644232
aF0.0
aF194.7008907565754
aF123.49817399128506
aF22.792022792022756
aF0.0
asS'Bacteria.Proteobacteria.Alphaproteobacteria.Rhizobiales.Bradyrhizobiaceae'
p121
(lp122
F75.71455612341475
aF0.0
aF20.421499754942023
aF261.4934544919672
aF44.46618346747294
aF270.7923383821063
aF33.62870546298317
aF251.36003734492
aF5245.9649518047145
aF417.81436662436926
aF0.0
aF0.0
aF82.56683785524382
aF73.81163271331562
aF57.05048968336978
aF70.55544776251034
aF16.994086058051828
aF0.0
aF0.0
aF0.0
aF0.0
aF0.0
aF17.29864378632715
aF16.160571437805984
aF16.043123917089147
aF0.0
aF16.51445840833647
aF65.49860815457673
aF0.0
aF0.0
aF0.0
aF22.792022792022756
aF0.0
asS'Bacteria.Bacteroidetes.Cytophagia.Cytophagales.Cytophagaceae.Dyadobacter'
p123
(lp124
F18.928639030853716
aF53.97916404267946
aF0.0
aF163.433409057479
aF0.0
aF0.0
aF0.0
aF5565.829398351793
aF64.36766812030314
aF15.474606171272898
aF0.0
aF0.0
aF16.513367571048743
aF0.0
aF19.016829894456592
aF0.0
aF0.0
aF57.68787016383355
aF0.0
aF209.3851057394788
aF0.0
aF35.407630344339196
aF17.29864378632715
aF1050.4371434573904
aF0.0
aF293.48259019348853
aF16910.80541013659
aF0.0
aF544.3045102197858
aF0.0
aF0.0
aF0.0
aF0.0
asS'Bacteria.Proteobacteria.Alphaproteobacteria.Rhodobacterales.Rhodobacteraceae.Unassigned'
p125
(lp126
F0.0
aF0.0
aF0.0
aF16.343340905747898
aF0.0
aF36.10564511761417
aF0.0
aF233.40574896313944
aF0.0
aF15.474606171272898
aF0.0
aF0.0
aF0.0
aF0.0
aF19.016829894456592
aF0.0
aF50.98225817415538
aF0.0
aF35.19391849088472
aF0.0
aF0.0
aF0.0
aF17.29864378632715
aF0.0
aF32.086247834178295
aF1949.5629205710313
aF1502.81571515862
aF0.0
aF0.0
aF0.0
aF0.0
aF0.0
aF0.0
asS'Bacteria.Proteobacteria.Betaproteobacteria.Burkholderiales.Alcaligenaceae.Unassigned'
p127
(lp128
F0.0
aF395.8472029796495
aF0.0
aF0.0
aF0.0
aF0.0
aF0.0
aF0.0
aF0.0
aF0.0
aF0.0
aF0.0
aF0.0
aF0.0
aF19.016829894456592
aF0.0
aF0.0
aF19.22929005461122
aF0.0
aF348.97517623246364
aF0.0
aF0.0
aF207.58372543592543
aF8710.54800497745
aF0.0
aF4989.204033289308
aF0.0
aF32.749304077288365
aF0.0
aF0.0
aF35.28519256893841
aF159.54415954415953
aF0.0
asS'Bacteria.Proteobacteria.Alphaproteobacteria.Rhizobiales.Methylobacteriaceae'
p129
(lp130
F151.42911224682993
aF35.986109361786376
aF163.37199803953575
aF800.8237043816498
aF133.39855040241883
aF2996.7685447619683
aF100.88611638894963
aF5637.646551878911
aF12937.901292180979
aF1454.6129800996544
aF204.9180327868857
aF485.2738064130795
aF462.3742919893655
aF319.8504084243681
aF665.5890463059808
aF70.55544776251034
aF271.90537692882884
aF134.60503038227853
aF17.59695924544241
aF139.5900704929859
aF100.00400016000644
aF300.96485792688344
aF345.9728757265431
aF16.160571437805984
aF144.38811525380171
aF83.8521686267111
aF33.02891681667304
aF114.6225642705092
aF1088.6090204395737
aF97.3504453782876
aF88.21298142234615
aF68.37606837606837
aF0.0
asS'Bacteria.Proteobacteria.Unassigned.Unassigned'
p131
(lp132
F113.57183418512166
aF17.993054680893188
aF367.58699558895603
aF147.09006815173183
aF222.33091733736472
aF36.10564511761417
aF168.14352731491587
aF17.954288381779996
aF16.091917030075837
aF0.0
aF136.6120218579231
aF0.0
aF33.026735142097486
aF270.642653282157
aF38.033659788913184
aF52.916585821882705
aF1818.3672082115434
aF3692.023690485344
aF8640.106989512213
aF116.32505874415456
aF860.0344013760548
aF0.0
aF726.5430390257401
aF16.160571437805984
aF705.897452351922
aF20.96304215667775
aF0.0
aF180.12117242508634
aF131.3838472944309
aF0.0
aF12579.171150826536
aF5766.381766381764
aF42.05833491052087
asS'Bacteria.Deinococcus_Thermus.Deinococci'
p133
(lp134
F0.0
aF0.0
aF0.0
aF0.0
aF0.0
aF18.052822558807087
aF134.51482185193288
aF592.4915165987394
aF7450.557584925092
aF2816.3783231716734
aF0.0
aF167.9793945276046
aF49.54010271314623
aF0.0
aF19.016829894456592
aF0.0
aF33.988172116103556
aF0.0
aF0.0
aF69.79503524649273
aF0.0
aF814.3754979198021
aF17.29864378632715
aF2973.5451445563053
aF1475.9674003721987
aF125.77825294006651
aF148.63012567502895
aF0.0
aF18.76912104206157
aF0.0
aF158.78336656022307
aF0.0
aF0.0
asS'Bacteria.Firmicutes.Clostridia.Clostridiales.Clostridiales_Incertae_Sedis_XI'
p135
(lp136
F0.0
aF0.0
aF20.421499754942023
aF0.0
aF3446.129218729161
aF0.0
aF0.0
aF0.0
aF0.0
aF0.0
aF0.0
aF0.0
aF0.0
aF18305.284912902294
aF0.0
aF0.0
aF0.0
aF0.0
aF0.0
aF0.0
aF0.0
aF0.0
aF0.0
aF0.0
aF16.043123917089147
aF0.0
aF0.0
aF0.0
aF0.0
aF0.0
aF0.0
aF0.0
aF0.0
asS'Bacteria.Bacteroidetes.Sphingobacteriia.Sphingobacteriales.Sphingobacteriaceae.Sphingobacterium'
p137
(lp138
F10902.896081771753
aF12343.235511092702
aF92203.07139356315
aF50075.99653521171
aF15318.600204544413
aF7852.977813081072
aF110218.08215492778
aF101226.2778964755
aF1850.570458458715
aF2862.8021416854963
aF56386.612021857974
aF634.5888237709509
aF132.10694056839057
aF22906.210018698963
aF7625.74878767709
aF102658.17649445252
aF24879.34198898783
aF23517.42173678946
aF1636.5172098261444
aF324314.26377870265
aF17780.71122844916
aF1575.6395503230965
aF18198.173263216217
aF5106.740574346707
aF9465.443111082592
aF206087.6674422996
aF28982.874506630604
aF90912.06811855256
aF7845.492595581752
aF32.4501484594292
aF10144.492863569754
aF115532.76353276354
aF126.1750047315622
asS'Bacteria.Proteobacteria.Betaproteobacteria.Burkholderiales.Oxalobacteraceae.Massilia'
p139
(lp140
F37.857278061707326
aF1331.4860463860937
aF102.10749877471002
aF11325.935247683346
aF289.0301925385747
aF18.052822558807087
aF23573.72252955127
aF9354.184246907373
aF337.93025763159216
aF711.8318838785553
aF6830.601092896177
aF93.32188584866924
aF644.0213352709018
aF295.246530853262
aF19.016829894456592
aF70.55544776251034
aF16.994086058051828
aF0.0
aF1953.2624762441003
aF8608.054347067446
aF860.0344013760548
aF53.111445516508844
aF0.0
aF64.64228575122414
aF4171.212218443175
aF0.0
aF115.60120885835538
aF180.12117242508634
aF0.0
aF0.0
aF52.927788853407726
aF22.792022792022756
aF21.029167455260435
asS'Bacteria.Proteobacteria.Betaproteobacteria.Burkholderiales.Oxalobacteraceae'
p141
(lp142
F75.71455612341475
aF1853.2846321319976
aF306.3224963241298
aF20134.995995881494
aF555.8272933434123
aF90.26411279403533
aF24481.69757705179
aF18403.14559132451
aF1577.0078689474287
aF758.255702392374
aF7718.579234972679
aF335.9587890552092
aF1403.6362435391402
aF418.26591870878804
aF171.15146905010954
aF952.4985447938894
aF5234.178505879952
aF12152.91131451425
aF24670.936862110233
aF26196.40322918362
aF60502.42009680386
aF70.81526068867839
aF11019.23609189043
aF96.9634286268362
aF38952.704870692454
aF0.0
aF132.11566726669216
aF25053.217619125557
aF2289.832767131515
aF0.0
aF125050.72246431833
aF142974.358974359
aF126.1750047315622
asS'Bacteria.Actinobacteria.Actinobacteria.Actinomycetales.Propionibacteriaceae'
p143
(lp144
F56.78591709256104
aF17.993054680893188
aF0.0
aF49.0300227172438
aF0.0
aF90.26411279403533
aF16.814352731491585
aF466.81149792627997
aF756.3201004135624
aF139.27145554145608
aF0.0
aF18.664377169733893
aF33.026735142097486
aF0.0
aF570.5048968336978
aF17.638861940627535
aF169.9408605805183
aF19.22929005461122
aF35.19391849088472
aF0.0
aF20.00080003200127
aF637.3373461981055
aF2473.706061444784
aF177.7662858158659
aF304.81935442469324
aF0.0
aF115.60120885835538
aF0.0
aF18.76912104206157
aF1005.9546022423029
aF388.1371182583232
aF501.4245014245009
aF0.0
asS'Bacteria.Proteobacteria.Alphaproteobacteria.Rhizobiales.Brucellaceae'
p145
(lp146
F321.78686352451297
aF359.8610936178638
aF81.68599901976799
aF310.5234772092108
aF422.4287429409935
aF559.637499323019
aF67.25741092596634
aF11095.75021994003
aF6243.663807669414
aF1052.273219646561
aF3517.759562841537
aF167.9793945276046
aF66.05347028419507
aF270.642653282157
aF741.6563658838073
aF7919.849011341784
aF271.90537692882884
aF153.83432043688975
aF87.98479622721186
aF395.50519973012524
aF60.0024000960039
aF88.51907586084805
aF17.29864378632715
aF872.6708576415255
aF80.21561958544564
aF41.92608431335561
aF363.3180849834029
aF32.749304077288365
aF37.53824208412314
aF210.92596498629035
aF0.0
aF0.0
aF42.05833491052087
asS'Bacteria.Actinobacteria.Actinobacteria.Actinomycetales.Nocardiopsaceae.Nocardiopsis'
p147
(lp148
F78137.42191936402
aF35.986109361786376
aF2675.216467897408
aF196.1200908689754
aF1556.3164213615582
aF17114.075785749104
aF16.814352731491585
aF6391.726663913671
aF40342.43599439999
aF0.0
aF1024.5901639344265
aF6905.819552801518
aF49.54010271314623
aF1599.2520421218403
aF21374.916801369192
aF70.55544776251034
aF1648.426347631024
aF0.0
aF52.79087773632713
aF23.26501174883091
aF0.0
aF88.51907586084805
aF121.09050650428965
aF16.160571437805984
aF48.12937175126734
aF41.92608431335561
aF16.51445840833647
aF49.123956115932586
aF0.0
aF0.0
aF17.642596284469207
aF0.0
aF0.0
asS'Bacteria.Proteobacteria.Gammaproteobacteria.Pseudomonadales.Pseudomonadaceae.Pseudomonas'
p149
(lp150
F40412.64433087261
aF218723.57270093745
aF129390.62244731304
aF507836.63196430646
aF197585.48623771645
aF16644.702399220063
aF247860.37361491745
aF55730.11113704503
aF24636.724973046035
aF78549.10092538144
aF188661.20218579206
aF38691.25387285821
aF316098.88204501587
aF292810.7469737236
aF160102.69088143
aF199707.19489178533
aF81078.78458296509
aF271132.98977001716
aF101094.5308650665
aF38643.18451480816
aF93483.73934957398
aF169372.39975214674
aF454729.4492111823
aF130852.14693191534
aF253850.3497401016
aF99385.78286480937
aF101877.69392102791
aF245406.91010316045
aF267497.5130914616
aF129.8005938377166
aF272031.1921102305
aF425572.649572649
aF311883.58252896735
asS'Bacteria.Proteobacteria.Gammaproteobacteria.Chromatiales'
p151
(lp152
F0.0
aF0.0
aF0.0
aF0.0
aF0.0
aF0.0
aF0.0
aF0.0
aF0.0
aF0.0
aF0.0
aF0.0
aF0.0
aF0.0
aF0.0
aF0.0
aF0.0
aF0.0
aF0.0
aF0.0
aF0.0
aF0.0
aF0.0
aF11748.735435284976
aF0.0
aF0.0
aF82.57229204168254
aF0.0
aF0.0
aF0.0
aF0.0
aF0.0
aF0.0
asS'Bacteria.Proteobacteria.Gammaproteobacteria.Enterobacteriales'
p153
(lp154
F473783.8349422676
aF5775.770552566707
aF230272.83123672602
aF555.6735907954298
aF190315.26524078415
aF319480.8008232087
aF4556.689590234219
aF14094.116379697334
aF2848.269314323416
aF1067.747825817832
aF121345.62841530019
aF1847.7733398036528
aF363.29408656307277
aF159999.015844897
aF161433.86897404215
aF33937.17037376745
aF351352.7292502208
aF373682.7936312596
aF559917.6462307305
aF348.97517623246364
aF900.036001440058
aF424.89156413207036
aF14254.082479933528
aF5623.878860356499
aF3385.0991465058028
aF754.6695176404
aF974.3530460918535
aF8760.438840674642
aF2665.2151879727503
aF146.02566806743155
aF109701.66369682964
aF26210.826210826213
aF303492.94471431855
asS'Bacteria.Proteobacteria.Gammaproteobacteria.Enterobacteriales.Enterobacteriaceae.Citrobacter'
p155
(lp156
F795.0028392958549
aF17.993054680893188
aF20.421499754942023
aF0.0
aF0.0
aF144.4225804704569
aF0.0
aF0.0
aF0.0
aF0.0
aF0.0
aF0.0
aF0.0
aF98.4155102844208
aF76.06731957782637
aF0.0
aF16.994086058051828
aF4307.360972232903
aF6211.726613641164
aF0.0
aF0.0
aF0.0
aF69.1945751453086
aF0.0
aF0.0
aF0.0
aF0.0
aF0.0
aF0.0
aF0.0
aF0.0
aF0.0
aF1640.2750615103107
asS'Bacteria.Bacteroidetes.Bacteroidia'
p157
(lp158
F473.21597577134185
aF485.812476384116
aF388.0084953438977
aF0.0
aF600.2934768108852
aF505.4790316465976
aF252.2152909723738
aF0.0
aF0.0
aF0.0
aF443.9890710382517
aF93.32188584866924
aF396.32082170517066
aF639.7008168487351
aF0.0
aF176.38861940627535
aF220.92311875467306
aF249.98077070994583
aF334.3422256634051
aF372.24018798129504
aF500.02000080003165
aF0.0
aF17.29864378632715
aF0.0
aF0.0
aF754.6695176404
aF231.20241771671076
aF0.0
aF112.61472625236962
aF308.2764103645771
aF0.0
aF136.75213675213718
aF168.23333964208328
asS'Bacteria.Firmicutes.Bacilli.Bacillales.Bacillales_Incertae_Sedis_XII'
p159
(lp160
F321.78686352451297
aF129298.09093689869
aF735.1739911779121
aF931.5704316276335
aF2290.0084485748625
aF11355.22538948967
aF182486.1701948779
aF4704.023556026358
aF15287.321178571961
aF10909.597350747432
aF614.7540983606561
aF66594.49774161036
aF7810.822861106067
aF1057.9667355575243
aF27574.40334696202
aF7461.238600885472
aF0.0
aF44592.723636643335
aF140.77567396353888
aF16564.68836516766
aF120.00480019200741
aF240754.1825263344
aF62586.49321893166
aF1939.2685725367198
aF340884.29699030955
aF1970.5259627277078
aF29726.025135005682
aF408891.43605698383
aF581.8427523039094
aF81.12537114857305
aF64254.33566803695
aF21492.87749287746
aF63.08750236578131
asS'Bacteria.Bacteroidetes.Unassigned.Unassigned.Unassigned'
p161
(lp162
F0.0
aF0.0
aF0.0
aF0.0
aF0.0
aF0.0
aF0.0
aF4721.977844408133
aF0.0
aF0.0
aF0.0
aF0.0
aF0.0
aF0.0
aF0.0
aF0.0
aF0.0
aF0.0
aF0.0
aF0.0
aF0.0
aF0.0
aF0.0
aF0.0
aF0.0
aF0.0
aF0.0
aF0.0
aF0.0
aF0.0
aF0.0
aF0.0
aF0.0
asS'Bacteria.Proteobacteria.Gammaproteobacteria.Pseudomonadales.Moraxellaceae.Acinetobacter'
p163
(lp164
F31932.614045050123
aF196987.96264641816
aF63408.756739094904
aF18713.125337081423
aF59740.31748854993
aF13268.824580723187
aF51384.66194743836
aF58082.12291505825
aF24749.368392256536
aF179675.65225464993
aF291017.7595628417
aF133972.89932434916
aF38988.0608352461
aF85572.28619230393
aF211562.23257583
aF177235.28477942562
aF934.6747331928481
aF29747.711714483514
aF54163.44055747161
aF230137.49621943542
aF22580.903236129456
aF137222.2713994869
aF92616.93883199563
aF23238.901727565033
aF36385.805043958135
aF268683.31132213905
aF132198.2395587339
aF151318.15948911099
aF205127.7238686917
aF146.02566806743155
aF59667.26063407495
aF88866.09686609685
aF236178.5796900296
asS'Bacteria.Firmicutes.Bacilli'
p165
(lp166
F70755.25269733107
aF146445.4720477896
aF80338.1800359419
aF6733.456453168157
aF50024.45640090708
aF506923.25745130185
aF331948.95162510726
aF101728.9979711654
aF58413.658819175194
aF19343.25771409122
aF25409.836065573767
aF651984.0232931426
aF19254.58658784282
aF26990.453695502452
aF230522.01198060246
aF10548.039440495277
aF498283.5973081364
aF209214.67579416945
aF21151.54501302171
aF16704.278435660635
aF440.0176007040285
aF270496.59201557975
aF110607.52836977545
aF34874.51316278539
aF398848.1037027525
aF3165.419365658344
aF45299.15941406706
aF434026.52693630295
aF1595.3752885752378
aF3293.690068632069
aF257775.97431238004
aF43692.30769230771
aF18589.784030450195
asS'Bacteria.Firmicutes.Clostridia.Clostridiales.Lachnospiraceae.Unassigned'
p167
(lp168
F132.5004732159758
aF71.97221872357265
aF163.37199803953575
aF0.0
aF2112.143714704962
aF198.58104814687735
aF151.32917458342487
aF0.0
aF64.36766812030314
aF0.0
aF409.83606557377044
aF37.32875433946768
aF132.10694056839057
aF2042.1218384017345
aF0.0
aF158.74975746564874
aF135.95268846441442
aF192.2929005461122
aF70.38783698176955
aF139.5900704929859
aF160.00640025601052
aF0.0
aF86.49321893163578
aF0.0
aF0.0
aF356.3717166635223
aF66.05783363334598
aF0.0
aF187.69121042061568
aF81.12537114857305
aF0.0
aF22.792022792022756
aF63.08750236578131
asS'Bacteria.Bacteroidetes.Flavobacteriia.Flavobacteriales.Flavobacteriaceae.Unassigned'
p169
(lp170
F0.0
aF0.0
aF2573.108969122689
aF0.0
aF7314.687180399305
aF36.10564511761417
aF0.0
aF0.0
aF0.0
aF0.0
aF136.6120218579231
aF0.0
aF16.513367571048743
aF565.8891841354201
aF0.0
aF123.47203358439347
aF0.0
aF38.45858010922233
aF87.98479622721186
aF1442.4307284275194
aF14500.5800232009
aF3098.167655129683
aF2093.135898145581
aF1923.1080010989149
aF978.6305589424367
aF398.2978009768778
aF33.02891681667304
aF0.0
aF0.0
aF0.0
aF723.3464476632383
aF1094.0170940170892
aF0.0
asS'Bacteria.Firmicutes.Bacilli.Bacillales.Planococcaceae.Planomicrobium'
p171
(lp172
F0.0
aF251.90276553250445
aF20.421499754942023
aF375.89684083220266
aF0.0
aF704.0600797934759
aF62431.69169202831
aF107.72573029067988
aF28048.21138342211
aF4425.737364984067
aF0.0
aF111.98626301840272
aF33.026735142097486
aF0.0
aF38.033659788913184
aF317.49951493129646
aF0.0
aF0.0
aF0.0
aF23.26501174883091
aF0.0
aF0.0
aF86.49321893163578
aF96.9634286268362
aF10813.065520118074
aF209.63042156677753
aF8372.830413026611
aF16.374652038644232
aF18.76912104206157
aF0.0
aF17.642596284469207
aF0.0
aF0.0
asS'Bacteria.Proteobacteria.Gammaproteobacteria.Unassigned.Unassigned.Unassigned'
p173
(lp174
F18606.852167329213
aF575.7777497885814
aF28099.983662800158
aF245.15011358621902
aF39174.70763484368
aF6354.593540700086
aF2925.6973752795393
aF377.04005601737936
aF16.091917030075837
aF92.8476370276377
aF18818.306010928954
aF298.63003471574166
aF99.08020542629258
aF35577.206967818136
aF21527.051440524883
aF6579.2955038540895
aF16671.198422948783
aF42977.46327205597
aF20324.487928485967
aF46.53002349766182
aF120.00480019200741
aF371.7801186155618
aF5293.384998616108
aF517.1382860097926
aF1861.0023743823367
aF83.8521686267111
aF82.57229204168254
aF2783.6908465695155
aF1745.528256911728
aF16.22507422971465
aF25387.696053351203
aF11578.347578347615
aF28010.851050406916
asS'Bacteria.Proteobacteria.Gammaproteobacteria.Pseudomonadales.Unassigned'
p175
(lp176
F18.928639030853716
aF863.6666246828717
aF20.421499754942023
aF0.0
aF66.69927520120953
aF0.0
aF151.32917458342487
aF35.90857676355999
aF0.0
aF61.8984246850918
aF102.45901639344265
aF55.99313150920157
aF0.0
aF98.4155102844208
aF342.3029381002191
aF687.9156156844758
aF0.0
aF76.91716021844478
aF0.0
aF116.32505874415456
aF20.00080003200127
aF867.4869434363106
aF17.29864378632715
aF0.0
aF449.20746967849595
aF20.96304215667775
aF16.51445840833647
aF442.1156050433928
aF319.0750577150476
aF0.0
aF158.78336656022307
aF205.12820512820522
aF42.05833491052087
asS'Bacteria.Proteobacteria.Gammaproteobacteria.Xanthomonadales.Xanthomonadaceae'
p177
(lp178
F6378.9513533976915
aF1475.4304838332368
aF6126.449926482606
aF9642.57113439129
aF266.79710080483767
aF1353.9616919105263
aF470.8018764817646
aF718.1715352712
aF6436.766812030324
aF278.5429110829132
aF1366.1202185792313
aF5058.046212997874
aF50795.11864854603
aF123.01938785552602
aF7074.260720737852
aF8554.848041204374
aF509.82258174155385
aF2076.7633258980118
aF4540.015485324133
aF2768.5363981108826
aF3060.1224048961963
aF13348.676639815865
aF743.841682812068
aF15223.258294413268
aF2711.2879419880614
aF15806.133786135035
aF1321.1566726669216
aF589.4874733911911
aF9966.403273334705
aF178573.16697223927
aF52.927788853407726
aF2917.3789173789182
aF4899.796017075687
asS'Bacteria.Actinobacteria.Actinobacteria.Actinomycetales.Nocardiopsaceae'
p179
(lp180
F78137.42191936402
aF35.986109361786376
aF2675.216467897408
aF196.1200908689754
aF1556.3164213615582
aF17114.075785749104
aF16.814352731491585
aF6391.726663913671
aF40342.43599439999
aF0.0
aF1024.5901639344265
aF6905.819552801518
aF49.54010271314623
aF1599.2520421218403
aF21374.916801369192
aF70.55544776251034
aF1648.426347631024
aF0.0
aF52.79087773632713
aF23.26501174883091
aF0.0
aF88.51907586084805
aF121.09050650428965
aF16.160571437805984
aF48.12937175126734
aF41.92608431335561
aF16.51445840833647
aF49.123956115932586
aF0.0
aF0.0
aF17.642596284469207
aF0.0
aF0.0
asS'Bacteria.Proteobacteria.Alphaproteobacteria.Rhizobiales'
p181
(lp182
F3728.9418890781753
aF5325.944185544375
aF857.7029897075644
aF3007.1747266576253
aF1200.5869536217683
aF4765.94515552506
aF823.9032838430884
aF175646.8032389531
aF28096.487134512387
aF3497.260994707683
aF12978.142076502729
aF895.890104147225
aF792.6416434103403
aF2042.1218384017345
aF4183.702576780446
aF15222.337854761612
aF1240.5682822377837
aF788.400892239059
aF334.3422256634051
aF4466.88225577554
aF180.00720028801163
aF3700.0973709834484
aF640.0498200941043
aF300829.0373147598
aF625.6818327664762
aF30291.595916399383
aF359536.2740078942
aF442.1156050433928
aF12049.775709003536
aF264841.88665163115
aF246.99634798256912
aF341.8803418803414
aF105.14583727630217
asS'Bacteria.Firmicutes.Clostridia.Clostridiales.Peptostreptococcaceae.Romboutsia'
p183
(lp184
F18.928639030853716
aF35.986109361786376
aF40.842999509884045
aF114.4033863402354
aF0.0
aF18.052822558807087
aF0.0
aF538.6286514533999
aF1705.7432051880382
aF232.11909256909448
aF0.0
aF0.0
aF0.0
aF0.0
aF38.033659788913184
aF0.0
aF0.0
aF0.0
aF0.0
aF0.0
aF0.0
aF35.407630344339196
aF0.0
aF290.8902858805085
aF80.21561958544564
aF0.0
aF297.2602513500569
aF16.374652038644232
aF18.76912104206157
aF0.0
aF17.642596284469207
aF22.792022792022756
aF0.0
asS'Bacteria.Firmicutes.Clostridia.Clostridiales.Lachnospiraceae.Clostridium_XlVa'
p185
(lp186
F5432.5194018550055
aF17.993054680893188
aF796.4384904427382
aF0.0
aF9471.297078571748
aF0.0
aF0.0
aF0.0
aF96.55150218045482
aF0.0
aF341.53005464480884
aF0.0
aF0.0
aF2435.7838795394123
aF0.0
aF52.916585821882705
aF33.988172116103556
aF4557.341742942849
aF161804.0402618427
aF0.0
aF0.0
aF35.407630344339196
aF86.49321893163578
aF48.48171431341805
aF0.0
aF0.0
aF0.0
aF16.374652038644232
aF0.0
aF0.0
aF35.28519256893841
aF0.0
aF0.0
asS'Bacteria.Firmicutes.Bacilli.Bacillales.Paenibacillaceae_1.Paenibacillus'
p187
(lp188
F56.78591709256104
aF4426.291451499721
aF5350.432935794805
aF179.77674996322722
aF7336.92027213304
aF415.2149188525621
aF11517.831621071746
aF15566.368027003238
aF2864.3612313534936
aF572.5604283370992
aF10245.901639344265
aF4292.806749038787
aF49.54010271314623
aF14836.138175376456
aF399.35342778358824
aF1322.9146455470727
aF84.97043029025895
aF96742.5582647488
aF7742.662067994649
aF69.79503524649273
aF0.0
aF3062.7600247853443
aF40063.659009133706
aF32175.69773267176
aF1652.441763460182
aF272.5195480368113
aF3022.145888725581
aF1719.338464057638
aF93.84560521030795
aF356.9516330537209
aF6933.540339796404
aF19076.9230769231
aF13563.813008642992
asS'Bacteria.Proteobacteria.Gammaproteobacteria.Unassigned.Unassigned'
p189
(lp190
F18606.852167329213
aF575.7777497885814
aF28099.983662800158
aF245.15011358621902
aF39174.70763484368
aF6354.593540700086
aF2925.6973752795393
aF377.04005601737936
aF16.091917030075837
aF92.8476370276377
aF18818.306010928954
aF298.63003471574166
aF99.08020542629258
aF35577.206967818136
aF21527.051440524883
aF6579.2955038540895
aF16671.198422948783
aF42977.46327205597
aF20324.487928485967
aF46.53002349766182
aF120.00480019200741
aF371.7801186155618
aF5293.384998616108
aF517.1382860097926
aF1861.0023743823367
aF83.8521686267111
aF82.57229204168254
aF2783.6908465695155
aF1745.528256911728
aF16.22507422971465
aF25387.696053351203
aF11578.347578347615
aF28010.851050406916
asS'Bacteria.Unassigned.Unassigned.Unassigned.Unassigned.Unassigned'
p191
(lp192
F4523.944728374028
aF2932.867912985591
aF7760.169906877964
aF2304.4110677104604
aF8159.544666281295
aF6679.544346758609
aF5918.652161485041
aF6284.000933622994
aF7788.4878425566885
aF4255.516697100057
aF4849.726775956288
aF1698.4583224457826
aF5119.1439470251125
aF8045.467965751407
aF6998.19340116003
aF5450.408339653925
aF2753.041941404395
aF4076.609491577568
aF2340.3955796438386
aF3443.2217388269764
aF3040.1216048641945
aF4018.7660440824957
aF34.5972875726543
aF1616.0571437805982
aF0.0
aF31968.639288933584
aF9330.669000710124
aF4503.029310627154
aF3340.903545486966
aF2579.786802524619
aF1570.1910693177608
aF0.0
aF1135.5750425840658
asS'Bacteria.Actinobacteria.Actinobacteria.Actinomycetales.Microbacteriaceae.Unassigned'
p193
(lp194
F37.857278061707326
aF989.6180074491239
aF81.68599901976799
aF98.0600454344877
aF0.0
aF72.21129023522823
aF369.9157600928147
aF359.0857676356
aF1625.2836200376507
aF8124.168239918292
aF68.30601092896177
aF2930.3072156482176
aF1486.203081394385
aF24.6038775711052
aF665.5890463059808
aF1305.275783606441
aF16.994086058051828
aF19.22929005461122
aF0.0
aF372.24018798129504
aF40.00160006400254
aF1009.1174648136673
aF415.1674508718519
aF307.0508573183146
aF192.51748700506997
aF419.2608431335561
aF4673.591729559227
aF0.0
aF487.99714709360103
aF129.8005938377166
aF35.28519256893841
aF22.792022792022756
aF0.0
asS'Bacteria.Deinococcus_Thermus.Deinococci.Deinococcales'
p195
(lp196
F0.0
aF0.0
aF0.0
aF0.0
aF0.0
aF18.052822558807087
aF134.51482185193288
aF592.4915165987394
aF7450.557584925092
aF2816.3783231716734
aF0.0
aF167.9793945276046
aF49.54010271314623
aF0.0
aF19.016829894456592
aF0.0
aF33.988172116103556
aF0.0
aF0.0
aF69.79503524649273
aF0.0
aF814.3754979198021
aF17.29864378632715
aF2973.5451445563053
aF1475.9674003721987
aF125.77825294006651
aF148.63012567502895
aF0.0
aF18.76912104206157
aF0.0
aF158.78336656022307
aF0.0
aF0.0
asS'Bacteria.Deinococcus_Thermus.Deinococci.Deinococcales.Deinococcaceae.Deinococcus'
p197
(lp198
F0.0
aF0.0
aF0.0
aF0.0
aF0.0
aF18.052822558807087
aF134.51482185193288
aF592.4915165987394
aF7450.557584925092
aF2816.3783231716734
aF0.0
aF167.9793945276046
aF49.54010271314623
aF0.0
aF19.016829894456592
aF0.0
aF33.988172116103556
aF0.0
aF0.0
aF69.79503524649273
aF0.0
aF814.3754979198021
aF17.29864378632715
aF2973.5451445563053
aF1475.9674003721987
aF125.77825294006651
aF148.63012567502895
aF0.0
aF18.76912104206157
aF0.0
aF158.78336656022307
aF0.0
aF0.0
asS'Bacteria.Proteobacteria.Betaproteobacteria.Burkholderiales.Alcaligenaceae'
p199
(lp200
F2744.6526594737816
aF503.8055310650089
aF714.7524914229704
aF604.7036135126745
aF0.0
aF54.15846767642116
aF100.88611638894963
aF1508.1602240695174
aF96.55150218045482
aF92.8476370276377
aF102.45901639344265
aF55.99313150920157
aF0.0
aF147.623265426631
aF19.016829894456592
aF105.83317164376582
aF33.988172116103556
aF76.91716021844478
aF158.372633208981
aF465.30023497661824
aF25721.02884115364
aF0.0
aF294.0769443675612
aF8710.54800497745
aF48.12937175126734
aF5052.093159759347
aF280.7457929417211
aF32.749304077288365
aF187.69121042061568
aF140006.16552820723
aF35.28519256893841
aF182.33618233618188
aF21.029167455260435
asS'Bacteria.Bacteroidetes.Unassigned'
p201
(lp202
F0.0
aF0.0
aF0.0
aF0.0
aF0.0
aF0.0
aF0.0
aF4721.977844408133
aF0.0
aF0.0
aF0.0
aF0.0
aF0.0
aF0.0
aF0.0
aF0.0
aF0.0
aF0.0
aF0.0
aF0.0
aF0.0
aF0.0
aF0.0
aF0.0
aF0.0
aF0.0
aF0.0
aF0.0
aF0.0
aF0.0
aF0.0
aF0.0
aF0.0
asS'Bacteria.Bacteroidetes.Sphingobacteriia.Sphingobacteriales.Sphingobacteriaceae'
p203
(lp204
F11413.969335604745
aF31235.942926030537
aF278876.0006534881
aF132119.56788206592
aF214771.66614789463
aF8502.879425198127
aF113732.28187580894
aF203260.49877013077
aF1850.570458458715
aF2940.175172541861
aF70081.96721311472
aF653.2532009406841
aF379.80745413412177
aF143711.24889282545
aF7796.900256727202
aF104704.2844795651
aF24964.31241927809
aF25863.39512345209
aF7302.738086858586
aF335388.4093711468
aF263090.52362094494
aF33318.580154023155
aF66150.013838915
aF91856.68805248945
aF22813.322210100774
aF228287.52908622078
aF77006.91955807315
aF91026.69068282295
aF66611.6105782766
aF48.67522268914385
aF23941.00315802478
aF141629.62962962978
aF50932.6435766408
asS'Bacteria.Firmicutes.Bacilli.Bacillales.Unassigned'
p205
(lp206
F0.0
aF1673.3540853230688
aF0.0
aF0.0
aF111.1654586686829
aF162.47540302926336
aF28668.471407193192
aF17.954288381779996
aF32.18383406015157
aF123.79684937018318
aF170.76502732240442
aF31860.091828735665
aF462.3742919893655
aF0.0
aF171.15146905010954
aF70.55544776251034
aF0.0
aF19.22929005461122
aF0.0
aF0.0
aF0.0
aF1026.8212799858413
aF103.79186271796272
aF0.0
aF7540.268241031892
aF0.0
aF379.8325433917397
aF278.36908465695154
aF0.0
aF0.0
aF141.14077027575405
aF0.0
aF0.0
asS'Bacteria.Proteobacteria.Alphaproteobacteria.Rhizobiales.Hyphomicrobiaceae'
p207
(lp208
F927.5033125118306
aF449.82636702232924
aF20.421499754942023
aF1356.4972951770828
aF44.46618346747294
aF198.58104814687735
aF151.32917458342487
aF104224.6440562328
aF160.91917030075837
aF30.9492123425459
aF1946.721311475409
aF18.664377169733893
aF0.0
aF196.83102056884204
aF285.2524484168489
aF1005.4151306157722
aF135.95268846441442
aF19.22929005461122
aF17.59695924544241
aF465.30023497661824
aF0.0
aF17.703815172169648
aF0.0
aF16273.695437870701
aF16.043123917089147
aF7651.510387187393
aF1436.757881525277
aF0.0
aF2102.1415567109025
aF0.0
aF35.28519256893841
aF0.0
aF0.0
asS'Bacteria.Firmicutes.Bacilli.Bacillales.Unassigned.Unassigned'
p209
(lp210
F0.0
aF1673.3540853230688
aF0.0
aF0.0
aF111.1654586686829
aF162.47540302926336
aF28668.471407193192
aF17.954288381779996
aF32.18383406015157
aF123.79684937018318
aF170.76502732240442
aF31860.091828735665
aF462.3742919893655
aF0.0
aF171.15146905010954
aF70.55544776251034
aF0.0
aF19.22929005461122
aF0.0
aF0.0
aF0.0
aF1026.8212799858413
aF103.79186271796272
aF0.0
aF7540.268241031892
aF0.0
aF379.8325433917397
aF278.36908465695154
aF0.0
aF0.0
aF141.14077027575405
aF0.0
aF0.0
asS'Bacteria.Actinobacteria.Actinobacteria.Actinomycetales.Micrococcaceae.Kocuria'
p211
(lp212
F0.0
aF17.993054680893188
aF0.0
aF0.0
aF0.0
aF72.21129023522823
aF84.07176365745804
aF0.0
aF1496.5482837970517
aF170.2206678840029
aF34.153005464480884
aF130.65064018813703
aF33.026735142097486
aF0.0
aF95.08414947228296
aF0.0
aF33.988172116103556
aF0.0
aF0.0
aF0.0
aF0.0
aF35.407630344339196
aF138.38915029061764
aF16.160571437805984
aF1844.959250465251
aF20.96304215667775
aF0.0
aF0.0
aF18.76912104206157
aF0.0
aF17.642596284469207
aF0.0
aF0.0
asS'Bacteria.Firmicutes.Bacilli.Lactobacillales'
p213
(lp214
F68748.8169600606
aF2968.8540223473765
aF30530.142133638317
aF98.0600454344877
aF20899.10622971227
aF450508.18695503013
aF1462.8486876397697
aF430.90292116271996
aF691.9524322932598
aF30.9492123425459
aF1946.721311475409
aF1437.1570420695043
aF280.72724870782906
aF7750.221434898141
aF91318.81715318053
aF123.47203358439347
aF496890.08225137676
aF66744.86577955542
aF12986.555923136426
aF23.26501174883091
aF100.00400016000644
aF16287.509958396062
aF4930.113479103242
aF48.48171431341805
aF27754.604376564243
aF419.2608431335561
aF247.71687612504752
aF16194.530866219142
aF262.7676945888628
aF1979.45905602518
aF184453.34415412563
aF2188.0341880341884
aF4710.5335099783415
asS'Bacteria.Proteobacteria.Gammaproteobacteria.Pseudomonadales.Moraxellaceae'
p215
(lp216
F32140.829074389578
aF203087.60818324122
aF69473.94216631274
aF18778.49870070439
aF63564.4092667526
aF13647.933854458135
aF51889.09252938305
aF76090.27416198363
aF27018.328693497235
aF181903.99554331394
aF294877.0491803283
aF136063.30956735997
aF39087.141040672424
aF116548.56805432538
aF241399.63868023228
aF179334.30935036042
aF1121.6096798314134
aF29824.62887470198
aF54304.21623143522
aF235023.14868668994
aF22600.904036161435
aF141081.70310701913
aF99034.7356767229
aF23255.06229900288
aF39690.68857087852
aF268746.2004486087
aF132214.75401714185
aF151531.029965613
aF205146.49298973317
aF210.92596498629035
aF62490.07603958995
aF89094.0170940171
aF236472.98803440365
asS'Bacteria.Proteobacteria.Betaproteobacteria.Burkholderiales.Comamonadaceae.Unassigned'
p217
(lp218
F851.7887563884161
aF71.97221872357265
aF1102.7609867668712
aF16.343340905747898
aF4691.182355818399
aF397.16209629375567
aF0.0
aF26159.398172253386
aF209.19492139098568
aF30.9492123425459
aF49419.398907103816
aF18.664377169733893
aF0.0
aF2952.4653085326204
aF190.16829894456592
aF17.638861940627535
aF458.84032356739806
aF0.0
aF87.98479622721186
aF9492.124793523017
aF40.00160006400254
aF0.0
aF397.8688070855249
aF80.80285718903012
aF898.4149393569909
aF3962.014967612102
aF132.11566726669216
aF1457.3440314393358
aF18.76912104206157
aF0.0
aF229.3537516981001
aF136.75213675213718
aF21.029167455260435
asS'Bacteria.Deinococcus_Thermus'
p219
(lp220
F0.0
aF0.0
aF0.0
aF0.0
aF0.0
aF18.052822558807087
aF134.51482185193288
aF592.4915165987394
aF7450.557584925092
aF2816.3783231716734
aF0.0
aF167.9793945276046
aF49.54010271314623
aF0.0
aF19.016829894456592
aF0.0
aF33.988172116103556
aF0.0
aF0.0
aF69.79503524649273
aF0.0
aF814.3754979198021
aF17.29864378632715
aF2973.5451445563053
aF1475.9674003721987
aF125.77825294006651
aF148.63012567502895
aF0.0
aF18.76912104206157
aF0.0
aF158.78336656022307
aF0.0
aF0.0
asS'Bacteria.Bacteroidetes.Flavobacteriia.Flavobacteriales.Flavobacteriaceae.Moheibacter'
p221
(lp222
F37.857278061707326
aF0.0
aF0.0
aF0.0
aF22.23309173373647
aF18.052822558807087
aF0.0
aF6822.629585076399
aF0.0
aF0.0
aF0.0
aF0.0
aF0.0
aF0.0
aF114.10097936673934
aF88.19430970313788
aF0.0
aF0.0
aF0.0
aF0.0
aF0.0
aF0.0
aF0.0
aF0.0
aF0.0
aF0.0
aF0.0
aF0.0
aF0.0
aF0.0
aF0.0
aF0.0
aF0.0
asS'Bacteria.Proteobacteria.Gammaproteobacteria.Chromatiales.Chromatiaceae.Rheinheimera'
p223
(lp224
F0.0
aF0.0
aF0.0
aF0.0
aF0.0
aF0.0
aF0.0
aF0.0
aF0.0
aF0.0
aF0.0
aF0.0
aF0.0
aF0.0
aF0.0
aF0.0
aF0.0
aF0.0
aF0.0
aF0.0
aF0.0
aF0.0
aF0.0
aF11748.735435284976
aF0.0
aF0.0
aF82.57229204168254
aF0.0
aF0.0
aF0.0
aF0.0
aF0.0
aF0.0
asS'Bacteria.Proteobacteria.Betaproteobacteria.Burkholderiales.Oxalobacteraceae.Unassigned'
p225
(lp226
F18.928639030853716
aF107.95832808535933
aF142.95049828459406
aF1225.750567931095
aF44.46618346747294
aF0.0
aF235.40093824088282
aF323.17719087204
aF0.0
aF0.0
aF887.9781420765034
aF37.32875433946768
aF181.64704328153638
aF24.6038775711052
aF0.0
aF88.19430970313788
aF254.91129087077692
aF1826.7825551880658
aF1249.3841064264059
aF1814.6709164088145
aF2680.1072042881674
aF0.0
aF1850.9548851370039
aF0.0
aF3577.616633510872
aF0.0
aF0.0
aF3602.423448501717
aF431.6897839674162
aF0.0
aF11026.622677793255
aF14039.886039885983
aF42.05833491052087
asS'Bacteria.Proteobacteria.Alphaproteobacteria.Sphingomonadales.Sphingomonadaceae'
p227
(lp228
F56.78591709256104
aF431.83331234143634
aF285.9009965691881
aF62693.05571444908
aF244.56400907110174
aF487.4262090877911
aF84.07176365745804
aF12603.910444009603
aF139307.72572936633
aF32976.38575098269
aF2049.180327868857
aF93.32188584866924
aF49.54010271314623
aF369.05816356657806
aF228.20195873347868
aF123.47203358439347
aF169.9408605805183
aF115.37574032766732
aF35.19391849088472
aF1023.6605169485607
aF3840.153606144247
aF442.5953793042402
aF121.09050650428965
aF69280.36975387447
aF160.43123917089147
aF8049.808188164271
aF50319.55477020129
aF163.7465203864423
aF154676.32650762936
aF16.22507422971465
aF70.57038513787694
aF159.54415954415953
aF42.05833491052087
asS'Bacteria.Proteobacteria.Betaproteobacteria.Burkholderiales.Unassigned.Unassigned'
p229
(lp230
F0.0
aF0.0
aF0.0
aF65.3733636229918
aF0.0
aF0.0
aF0.0
aF17.954288381779996
aF0.0
aF0.0
aF0.0
aF0.0
aF0.0
aF0.0
aF0.0
aF0.0
aF0.0
aF0.0
aF17.59695924544241
aF0.0
aF3440.1376055042256
aF0.0
aF0.0
aF0.0
aF0.0
aF0.0
aF0.0
aF16.374652038644232
aF18.76912104206157
aF0.0
aF0.0
aF45.58404558404551
aF0.0
asS'Bacteria.Proteobacteria.Alphaproteobacteria.Rhodobacterales.Rhodobacteraceae'
p231
(lp232
F0.0
aF0.0
aF81.68599901976799
aF16.343340905747898
aF44.46618346747294
aF54.15846767642116
aF16.814352731491585
aF484.76578630805943
aF112.64341921053106
aF15.474606171272898
aF0.0
aF0.0
aF16.513367571048743
aF0.0
aF76.06731957782637
aF17.638861940627535
aF84.97043029025895
aF0.0
aF70.38783698176955
aF0.0
aF0.0
aF17.703815172169648
aF51.895931358981464
aF517.1382860097926
aF80.21561958544564
aF74272.05836110935
aF47181.807672617346
aF0.0
aF8690.103042474517
aF0.0
aF0.0
aF0.0
aF0.0
asS'Bacteria.Proteobacteria.Gammaproteobacteria.Unassigned'
p233
(lp234
F18606.852167329213
aF575.7777497885814
aF28099.983662800158
aF245.15011358621902
aF39174.70763484368
aF6354.593540700086
aF2925.6973752795393
aF377.04005601737936
aF16.091917030075837
aF92.8476370276377
aF18818.306010928954
aF298.63003471574166
aF99.08020542629258
aF35577.206967818136
aF21527.051440524883
aF6579.2955038540895
aF16671.198422948783
aF42977.46327205597
aF20324.487928485967
aF46.53002349766182
aF120.00480019200741
aF371.7801186155618
aF5293.384998616108
aF517.1382860097926
aF1861.0023743823367
aF83.8521686267111
aF82.57229204168254
aF2783.6908465695155
aF1745.528256911728
aF16.22507422971465
aF25387.696053351203
aF11578.347578347615
aF28010.851050406916
asS'Bacteria.Firmicutes.Clostridia.Clostridiales.Ruminococcaceae.Faecalibacterium'
p235
(lp236
F302.85822449365884
aF305.88192957518413
aF714.7524914229704
aF0.0
aF911.5567610831959
aF812.3770151463178
aF571.6879928707145
aF17.954288381779996
aF0.0
aF0.0
aF443.9890710382517
aF130.65064018813703
aF495.40102713146234
aF565.8891841354201
aF19.016829894456592
aF423.3326865750623
aF169.9408605805183
aF384.58580109222333
aF158.372633208981
aF465.30023497661824
aF340.0136005440221
aF0.0
aF86.49321893163578
aF0.0
aF0.0
aF712.7434333270446
aF495.43375225009504
aF0.0
aF168.92208937855446
aF178.47581652686046
aF17.642596284469207
aF159.54415954415953
aF189.26250709734433
asS'Bacteria.Actinobacteria.Actinobacteria.Actinomycetales.Nocardiaceae.Nocardia'
p237
(lp238
F2896.0817717206146
aF10705.867535131418
aF13723.247835320979
aF572.016931701178
aF3290.4975765929953
aF379.1092737349482
aF420.35881828728964
aF38260.588541573095
aF11473.536842444053
aF6081.520225310263
aF11577.868852459007
aF13998.282877300418
aF249038.09633898633
aF6003.346127349673
aF14719.026338309406
aF68985.5890497945
aF730.745700496227
aF807.6301822936692
aF545.5057366087135
aF1744.8758811623184
aF2720.1088043521713
aF2974.240948924494
aF916.8281206753395
aF2763.4577158648294
aF1123.0186741962425
aF28362.996037985053
aF1965.2205505920415
aF278.36908465695154
aF731.9957206404025
aF194.7008907565754
aF776.2742365166464
aF387.4643874643871
aF210.29167455260435
asS'Bacteria.Firmicutes.Bacilli.Bacillales.Planococcaceae.Planococcaceae_incertae_sedis'
p239
(lp240
F18.928639030853716
aF89.96527340446583
aF40.842999509884045
aF0.0
aF0.0
aF252.7395158232988
aF1546.9204512972246
aF215.45146058135998
aF80.45958515037897
aF0.0
aF68.30601092896177
aF4106.162977341443
aF0.0
aF0.0
aF19.016829894456592
aF0.0
aF0.0
aF0.0
aF0.0
aF0.0
aF0.0
aF513.4106399929186
aF17.29864378632715
aF0.0
aF32.086247834178295
aF0.0
aF16.51445840833647
aF0.0
aF0.0
aF0.0
aF0.0
aF0.0
aF0.0
asS'Bacteria.Proteobacteria.Alphaproteobacteria'
p241
(lp242
F19098.996782131344
aF79871.1697284848
aF17991.34128410387
aF150832.69321914777
aF2401.1739072435366
aF6517.068943729354
aF1530.1060985657316
aF229276.26263533087
aF196401.8473520755
aF47816.53306923338
aF47745.9016393443
aF27026.018141774628
aF43842.99090113446
aF15057.57307351642
aF61139.10811067796
aF25011.906231809917
aF2566.106994765822
aF2230.597646334901
aF6194.129654395715
aF171812.1117651161
aF250230.00920036787
aF70744.4454279897
aF5587.461942983666
aF436561.67682089255
aF10059.038696014884
aF217575.41454415905
aF467144.4849966144
aF7827.08367447192
aF278627.60186940484
aF390067.0095565693
aF1464.3354916109506
aF980.0569800569795
aF1135.5750425840658
asS'Bacteria.Proteobacteria.Alphaproteobacteria.Rhodospirillales.Rhodospirillaceae'
p243
(lp244
F94.64319515426847
aF0.0
aF11558.568861297144
aF0.0
aF133.39855040241883
aF0.0
aF0.0
aF12334.596118282827
aF128.7353362406065
aF30.9492123425459
aF23155.737704918014
aF0.0
aF0.0
aF295.246530853262
aF76.06731957782637
aF0.0
aF0.0
aF0.0
aF0.0
aF0.0
aF0.0
aF17.703815172169648
aF0.0
aF0.0
aF32.086247834178295
aF20.96304215667775
aF0.0
aF32.749304077288365
aF0.0
aF0.0
aF0.0
aF0.0
aF0.0
asS'Bacteria.Proteobacteria.Alphaproteobacteria.Rhizobiales.Xanthobacteraceae'
p245
(lp246
F18.928639030853716
aF17.993054680893188
aF0.0
aF98.0600454344877
aF0.0
aF36.10564511761417
aF0.0
aF107.72573029067988
aF0.0
aF0.0
aF34.153005464480884
aF0.0
aF0.0
aF0.0
aF0.0
aF0.0
aF0.0
aF0.0
aF0.0
aF0.0
aF0.0
aF0.0
aF17.29864378632715
aF1276.685143586682
aF0.0
aF188.66737941010027
aF1717.5036744670003
aF0.0
aF300.3059366729853
aF0.0
aF0.0
aF0.0
aF0.0
asS'Bacteria.Proteobacteria.Gammaproteobacteria.Xanthomonadales'
p247
(lp248
F6378.9513533976915
aF1475.4304838332368
aF6126.449926482606
aF9642.57113439129
aF266.79710080483767
aF1353.9616919105263
aF470.8018764817646
aF718.1715352712
aF6436.766812030324
aF278.5429110829132
aF1366.1202185792313
aF5058.046212997874
aF50795.11864854603
aF123.01938785552602
aF7074.260720737852
aF8554.848041204374
aF509.82258174155385
aF2076.7633258980118
aF4540.015485324133
aF2768.5363981108826
aF3060.1224048961963
aF13348.676639815865
aF743.841682812068
aF15223.258294413268
aF2711.2879419880614
aF15806.133786135035
aF1321.1566726669216
aF589.4874733911911
aF9966.403273334705
aF178573.16697223927
aF52.927788853407726
aF2917.3789173789182
aF4899.796017075687
asS'Bacteria.Proteobacteria.Alphaproteobacteria.Rhizobiales.Methylobacteriaceae.Methylobacterium'
p249
(lp250
F151.42911224682993
aF35.986109361786376
aF163.37199803953575
aF800.8237043816498
aF133.39855040241883
aF2996.7685447619683
aF100.88611638894963
aF5637.646551878911
aF12937.901292180979
aF1454.6129800996544
aF204.9180327868857
aF485.2738064130795
aF462.3742919893655
aF319.8504084243681
aF665.5890463059808
aF70.55544776251034
aF271.90537692882884
aF134.60503038227853
aF17.59695924544241
aF139.5900704929859
aF100.00400016000644
aF300.96485792688344
aF345.9728757265431
aF16.160571437805984
aF144.38811525380171
aF83.8521686267111
aF33.02891681667304
aF114.6225642705092
aF1088.6090204395737
aF97.3504453782876
aF88.21298142234615
aF68.37606837606837
aF0.0
asS'Bacteria.Actinobacteria.Actinobacteria.Actinomycetales.Brevibacteriaceae'
p251
(lp252
F0.0
aF35.986109361786376
aF0.0
aF16.343340905747898
aF44.46618346747294
aF397.16209629375567
aF134.51482185193288
aF35.90857676355999
aF193.10300436090918
aF30.9492123425459
aF102.45901639344265
aF8063.010937325017
aF165.13367571048744
aF0.0
aF627.555386517068
aF335.1383768719241
aF0.0
aF19.22929005461122
aF35.19391849088472
aF46.53002349766182
aF0.0
aF460.2991944764101
aF103.79186271796272
aF32.32114287561207
aF80.21561958544564
aF0.0
aF16.51445840833647
aF196.49582446373034
aF18.76912104206157
aF0.0
aF105.85557770681505
aF205.12820512820522
aF0.0
asS'Bacteria.Proteobacteria.Alphaproteobacteria.Rhizobiales.Hyphomicrobiaceae.Devosia'
p253
(lp254
F927.5033125118306
aF449.82636702232924
aF20.421499754942023
aF1356.4972951770828
aF44.46618346747294
aF198.58104814687735
aF151.32917458342487
aF104224.6440562328
aF160.91917030075837
aF30.9492123425459
aF1946.721311475409
aF18.664377169733893
aF0.0
aF196.83102056884204
aF285.2524484168489
aF1005.4151306157722
aF135.95268846441442
aF19.22929005461122
aF17.59695924544241
aF465.30023497661824
aF0.0
aF17.703815172169648
aF0.0
aF16273.695437870701
aF16.043123917089147
aF7651.510387187393
aF1436.757881525277
aF0.0
aF2102.1415567109025
aF0.0
aF35.28519256893841
aF0.0
aF0.0
asS'Bacteria.Firmicutes.Bacilli.Bacillales.Planococcaceae.Unassigned'
p255
(lp256
F0.0
aF3202.763733198984
aF40.842999509884045
aF784.4803634759016
aF0.0
aF1751.123788204283
aF35612.799085299244
aF35.90857676355999
aF2108.041130939934
aF773.7303085636469
aF0.0
aF559.9313150920158
aF6555.806925706354
aF0.0
aF589.5217267281542
aF17.638861940627535
aF0.0
aF0.0
aF0.0
aF0.0
aF0.0
aF318.6686730990533
aF207.58372543592543
aF0.0
aF128.34499133671298
aF20.96304215667775
aF66.05783363334598
aF16.374652038644232
aF0.0
aF16.22507422971465
aF0.0
aF0.0
aF0.0
asS'Bacteria.Bacteroidetes.Flavobacteriia.Flavobacteriales.Flavobacteriaceae.Flavobacterium'
p257
(lp258
F9464.319515426847
aF140489.7709484143
aF4308.936448292765
aF130942.84733685252
aF822.6243941482498
aF577.6903218818255
aF1126.5616330099401
aF58315.52866402137
aF273.56258951128837
aF170.2206678840029
aF27049.18032786883
aF74.65750867893536
aF33.026735142097486
aF1796.0830626906845
aF589.5217267281542
aF35895.08404917713
aF254.91129087077692
aF499.9615414198907
aF9502.357992538891
aF24800.502524253803
aF56322.252890115604
aF5098.698769584847
aF2542.9006365900923
aF37654.13145008805
aF689.8543284348323
aF5597.132255832969
aF23813.84902482121
aF327.4930407728836
aF93357.60806321436
aF162088.49155484917
aF1129.1261622060306
aF1185.1851851851866
aF168.23333964208328
asS'Bacteria.Firmicutes.Bacilli.Lactobacillales.Lactobacillaceae'
p259
(lp260
F4145.371947756956
aF0.0
aF0.0
aF0.0
aF22.23309173373647
aF0.0
aF0.0
aF0.0
aF0.0
aF0.0
aF0.0
aF55.99313150920157
aF0.0
aF0.0
aF0.0
aF0.0
aF0.0
aF0.0
aF0.0
aF0.0
aF0.0
aF0.0
aF0.0
aF0.0
aF0.0
aF0.0
aF0.0
aF0.0
aF0.0
aF0.0
aF0.0
aF0.0
aF0.0
asS'Bacteria.Proteobacteria.Gammaproteobacteria.Enterobacteriales.Enterobacteriaceae.Yersinia'
p261
(lp262
F0.0
aF35.986109361786376
aF0.0
aF0.0
aF0.0
aF0.0
aF1059.3042220839682
aF0.0
aF482.7575109022741
aF30.9492123425459
aF0.0
aF18.664377169733893
aF82.56683785524382
aF0.0
aF0.0
aF35.27772388125517
aF1325.5387125280383
aF142239.05853395886
aF2639.543886816357
aF23.26501174883091
aF0.0
aF35.407630344339196
aF0.0
aF0.0
aF0.0
aF20.96304215667775
aF16.51445840833647
aF32.749304077288365
aF0.0
aF0.0
aF17.642596284469207
aF182.33618233618188
aF84.11666982104174
asS'Bacteria.Proteobacteria.Alphaproteobacteria.Rhizobiales.Phyllobacteriaceae.Mesorhizobium'
p263
(lp264
F56.78591709256104
aF107.95832808535933
aF0.0
aF32.6866818114959
aF0.0
aF18.052822558807087
aF0.0
aF897.7144190889989
aF2462.0633056015977
aF263.06830491164027
aF0.0
aF18.664377169733893
aF0.0
aF24.6038775711052
aF0.0
aF0.0
aF0.0
aF19.22929005461122
aF17.59695924544241
aF0.0
aF0.0
aF0.0
aF0.0
aF258.5691430048963
aF16.043123917089147
aF20.96304215667775
aF82.57229204168254
aF0.0
aF0.0
aF81.12537114857305
aF17.642596284469207
aF0.0
aF0.0
asS'Bacteria.Bacteroidetes.Bacteroidia.Bacteroidales'
p265
(lp266
F473.21597577134185
aF485.812476384116
aF388.0084953438977
aF0.0
aF600.2934768108852
aF505.4790316465976
aF252.2152909723738
aF0.0
aF0.0
aF0.0
aF443.9890710382517
aF93.32188584866924
aF396.32082170517066
aF639.7008168487351
aF0.0
aF176.38861940627535
aF220.92311875467306
aF249.98077070994583
aF334.3422256634051
aF372.24018798129504
aF500.02000080003165
aF0.0
aF17.29864378632715
aF0.0
aF0.0
aF754.6695176404
aF231.20241771671076
aF0.0
aF112.61472625236962
aF308.2764103645771
aF0.0
aF136.75213675213718
aF168.23333964208328
asS'Bacteria.Proteobacteria.Betaproteobacteria'
p267
(lp268
F10846.110164679174
aF2662.9720927721874
aF46275.11844469858
aF20837.759654828606
aF7003.423896126996
aF884.5883053815459
aF24582.583693440745
aF65209.97540262486
aF2011.4896287594797
aF882.0525517625582
aF113797.81420765062
aF429.28067490387866
aF1403.6362435391402
aF17911.622871764608
aF684.6058762004371
aF2010.8302612315465
aF5744.0010876215
aF12287.516344896589
aF25269.23347645523
aF36363.21336342272
aF91023.64094563789
aF3611.5782951225992
aF12731.801826736819
aF12944.61772168261
aF40284.28415581078
aF27293.880887994503
aF14268.492064802767
aF28835.762240052387
aF2909.213761519547
aF140038.6156766665
aF125580.00035285164
aF143566.9515669514
aF3112.3167833785433
asS'Bacteria.Actinobacteria.Actinobacteria.Actinomycetales.Microbacteriaceae.Agromyces'
p269
(lp270
F151.42911224682993
aF161.937492128039
aF20.421499754942023
aF16.343340905747898
aF0.0
aF0.0
aF0.0
aF251.36003734492
aF32.18383406015157
aF30.9492123425459
aF68.30601092896177
aF261.30128037627406
aF313.75398384992593
aF0.0
aF95.08414947228296
aF1075.9705783782797
aF0.0
aF19.22929005461122
aF0.0
aF1768.1408929111537
aF0.0
aF35.407630344339196
aF69.1945751453086
aF32.32114287561207
aF0.0
aF628.8912647003336
aF115.60120885835538
aF0.0
aF469.22802605153976
aF924.8292310937321
aF0.0
aF0.0
aF21.029167455260435
asS'Bacteria.Actinobacteria.Actinobacteria.Actinomycetales.Sanguibacteraceae.Sanguibacter'
p271
(lp272
F18.928639030853716
aF377.8541482987567
aF5084.953438980557
aF1846.7975223495189
aF444.66183467472945
aF902.6411279403533
aF538.0592874077315
aF89.7714419089
aF0.0
aF15.474606171272898
aF102.45901639344265
aF186.6437716973389
aF16.513367571048743
aF172.22714299773602
aF646.5722164115244
aF864.3042350907511
aF2294.2016178369954
aF2595.9541573725146
aF1478.1445766171614
aF23.26501174883091
aF40.00160006400254
aF48827.12224484374
aF47588.569056186025
aF6464.2285751224135
aF6176.602708079313
aF3102.530239188315
aF2212.9374267170933
aF2407.0738496806935
aF26839.84309014812
aF0.0
aF18895.220620666518
aF32615.384615384588
aF2607.6167644522984
asS'Bacteria.Proteobacteria.Alphaproteobacteria.Sphingomonadales.Sphingomonadaceae.Sphingomonas'
p273
(lp274
F37.857278061707326
aF107.95832808535933
aF245.05799705930366
aF457.6135453609426
aF200.09782560362876
aF198.58104814687735
aF50.44305819447476
aF4829.70357469882
aF138084.74003508015
aF32837.11429544116
aF819.6721311475409
aF74.65750867893536
aF49.54010271314623
aF147.623265426631
aF95.08414947228296
aF35.27772388125517
aF152.94677452246634
aF38.45858010922233
aF35.19391849088472
aF93.06004699532365
aF20.00080003200127
aF123.92670620518693
aF17.29864378632715
aF32.32114287561207
aF16.043123917089147
aF0.0
aF16.51445840833647
aF114.6225642705092
aF1839.3738621220346
aF0.0
aF35.28519256893841
aF113.96011396011379
aF0.0
asS'Bacteria.Actinobacteria.Actinobacteria.Actinomycetales.Microbacteriaceae.Curtobacterium'
p275
(lp276
F18.928639030853716
aF125.95138276625222
aF20.421499754942023
aF81.7167045287397
aF44.46618346747294
aF90.26411279403533
aF50.44305819447476
aF215.45146058135998
aF80.45958515037897
aF0.0
aF0.0
aF223.97252603680647
aF726.5881731261455
aF0.0
aF76.06731957782637
aF123.47203358439347
aF0.0
aF0.0
aF0.0
aF162.85508224181618
aF0.0
aF460.2991944764101
aF17.29864378632715
aF0.0
aF112.30186741962423
aF20.96304215667775
aF16.51445840833647
aF32.749304077288365
aF150.1529683364932
aF0.0
aF17.642596284469207
aF592.5925925925924
aF0.0
asS'Bacteria.Bacteroidetes.Sphingobacteriia.Sphingobacteriales.Chitinophagaceae.Unassigned'
p277
(lp278
F0.0
aF0.0
aF0.0
aF16.343340905747898
aF0.0
aF0.0
aF0.0
aF15045.69366393163
aF0.0
aF46.423818513818794
aF0.0
aF0.0
aF0.0
aF0.0
aF0.0
aF0.0
aF0.0
aF0.0
aF0.0
aF0.0
aF0.0
aF0.0
aF0.0
aF0.0
aF0.0
aF0.0
aF0.0
aF0.0
aF0.0
aF0.0
aF0.0
aF0.0
aF0.0
asS'Bacteria.Bacteroidetes.Sphingobacteriia.Sphingobacteriales.Sphingobacteriaceae.Arcticibacter'
p279
(lp280
F170.35775127768304
aF197.92360148982476
aF171418.0689429835
aF16.343340905747898
aF138734.4924185154
aF613.7959669994406
aF33.62870546298317
aF2208.377470958944
aF0.0
aF0.0
aF11099.72677595632
aF18.664377169733893
aF181.64704328153638
aF106313.35498474611
aF133.11780926119573
aF1799.163917944017
aF67.97634423220711
aF2172.9097761710677
aF5631.026958541555
aF860.8054347067444
aF244809.79239169552
aF31158.714703018533
aF43021.72709659559
aF37072.35087832702
aF12898.67162933962
aF2725.195480368113
aF5268.112232259345
aF98.24791223186509
aF56.30736312618481
aF16.22507422971465
aF13761.225101886006
aF24866.096866096806
aF50806.46857190922
asS'Bacteria.Proteobacteria.Gammaproteobacteria.Enterobacteriales.Enterobacteriaceae.Serratia'
p281
(lp282
F56.78591709256104
aF4426.291451499721
aF40.842999509884045
aF16.343340905747898
aF822.6243941482498
aF36.10564511761417
aF235.40093824088282
aF17.954288381779996
aF611.4928471428806
aF30.9492123425459
aF0.0
aF149.31501735787032
aF33.026735142097486
aF0.0
aF1102.9761338784872
aF30762.175224454553
aF143617.02127659557
aF34035.84339666175
aF7883.437741958184
aF0.0
aF20.00080003200127
aF17.703815172169648
aF1799.0589537780234
aF96.9634286268362
aF128.34499133671298
aF125.77825294006651
aF99.08675045001903
aF5452.759128868511
aF225.22945250473924
aF16.22507422971465
aF3793.1582011608816
aF1914.5299145299161
aF5993.312724749229
asS'Bacteria.Proteobacteria.Gammaproteobacteria.Pseudomonadales.Pseudomonadaceae'
p283
(lp284
F40412.64433087261
aF218723.57270093745
aF129390.62244731304
aF507836.63196430646
aF197585.48623771645
aF16644.702399220063
aF247860.37361491745
aF55730.11113704503
aF24636.724973046035
aF78549.10092538144
aF188661.20218579206
aF38691.25387285821
aF316098.88204501587
aF292810.7469737236
aF160102.69088143
aF199707.19489178533
aF81078.78458296509
aF271132.98977001716
aF101094.5308650665
aF38643.18451480816
aF93483.73934957398
aF169372.39975214674
aF454729.4492111823
aF130852.14693191534
aF253850.3497401016
aF99385.78286480937
aF101877.69392102791
aF245406.91010316045
aF267497.5130914616
aF129.8005938377166
aF272031.1921102305
aF425572.649572649
aF311883.58252896735
asS'Bacteria.Proteobacteria.Alphaproteobacteria.Caulobacterales.Caulobacteraceae'
p285
(lp286
F15218.625780806326
aF74113.39223059898
aF5207.482437510209
aF85116.11943713528
aF778.158210680777
aF1209.5391114400684
aF605.3166983336974
aF28206.18704777639
aF28756.255732745434
aF11296.462505029256
aF9562.84153005465
aF26036.80615177872
aF42984.29578743987
aF12351.14654069484
aF56575.06893600834
aF9648.457481523285
aF1070.6274216572644
aF1326.8210137681742
aF5754.205673259653
aF166321.5689923918
aF246209.84839393626
aF66566.34504735774
aF4774.425685026289
aF65935.13146624864
aF9160.623756657891
aF104940.98903632867
aF10106.848545901941
aF7188.472244964796
aF103211.39661029668
aF125208.89783070798
aF1146.7687584905004
aF478.6324786324785
aF988.3708703972407
asS'Bacteria.Proteobacteria.Gammaproteobacteria.Enterobacteriales.Enterobacteriaceae.Buttiauxella'
p287
(lp288
F111281.46886238841
aF359.8610936178638
aF44130.86097042963
aF163.433409057479
aF11739.072435412909
aF32657.556008881984
aF16.814352731491585
aF502.72007468984
aF321.8383406015157
aF139.27145554145608
aF443.9890710382517
aF93.32188584866924
aF49.54010271314623
aF22241.905324279076
aF19378.149662451287
aF1569.8587127158557
aF139453.4701923729
aF88185.52419044691
aF251108.60843246235
aF186.12009399064752
aF700.0280011200455
aF53.111445516508844
aF10206.199833933024
aF32.32114287561207
aF2951.9348007443973
aF251.55650588013302
aF544.9771274751043
aF1686.5891599803542
aF600.6118733459706
aF97.3504453782876
aF77609.78105538012
aF17527.065527065504
aF232393.32954808336
asS'Bacteria.Actinobacteria.Actinobacteria.Actinomycetales.Microbacteriaceae.Leucobacter'
p289
(lp290
F208.21502933939027
aF35.986109361786376
aF265.4794968142464
aF179.77674996322722
aF66.69927520120953
aF216.6338707056848
aF33.62870546298317
aF179.5428838178
aF0.0
aF15.474606171272898
aF102.45901639344265
aF55.99313150920157
aF0.0
aF49.2077551422104
aF285.2524484168489
aF17.638861940627535
aF152.94677452246634
aF38.45858010922233
aF0.0
aF302.44515273480204
aF0.0
aF336.3724882712221
aF51.895931358981464
aF193.926857253672
aF16.043123917089147
aF20.96304215667775
aF16.51445840833647
aF65.49860815457673
aF6268.886428048574
aF405.62685574286473
aF0.0
aF22.792022792022756
aF21.029167455260435
asS'Bacteria.Firmicutes.Clostridia'
p291
(lp292
F215767.5563127007
aF557.7846951076885
aF45499.101454010815
aF179.77674996322722
aF149450.84263417707
aF1696.9653205278678
aF857.5319893060713
aF3142.000466811497
aF1995.397711729402
aF247.59369874036736
aF13080.601092896177
aF205.3081488670722
aF809.1550109813893
aF164230.8827871277
aF152.13463915565316
aF829.0265112094959
aF2922.9828019849037
aF5307.284055072687
aF162719.08214260545
aF744.4803759625901
aF620.0248009920401
aF88.51907586084805
aF449.76473844450584
aF468.65657169637547
aF385.03497401013897
aF1551.2651195941526
aF20659.587468829017
aF65.49860815457673
aF487.99714709360103
aF45900.734995862615
aF105.85557770681505
aF250.71225071225098
aF336.46667928416656
asS'Bacteria.Actinobacteria.Actinobacteria.Actinomycetales.Cellulomonadaceae.Cellulomonas'
p293
(lp294
F0.0
aF0.0
aF102.10749877471002
aF0.0
aF555.8272933434123
aF0.0
aF0.0
aF35.90857676355999
aF16.091917030075837
aF0.0
aF102.45901639344265
aF0.0
aF0.0
aF0.0
aF0.0
aF17.638861940627535
aF0.0
aF0.0
aF0.0
aF0.0
aF0.0
aF0.0
aF5570.163299197338
aF0.0
aF0.0
aF41.92608431335561
aF49.54337522500951
aF0.0
aF0.0
aF0.0
aF0.0
aF0.0
aF0.0
asS'Bacteria.Proteobacteria.Alphaproteobacteria.Rhodospirillales.Rhodospirillaceae.Azospirillum'
p295
(lp296
F94.64319515426847
aF0.0
aF11558.568861297144
aF0.0
aF133.39855040241883
aF0.0
aF0.0
aF12334.596118282827
aF128.7353362406065
aF30.9492123425459
aF23155.737704918014
aF0.0
aF0.0
aF295.246530853262
aF76.06731957782637
aF0.0
aF0.0
aF0.0
aF0.0
aF0.0
aF0.0
aF17.703815172169648
aF0.0
aF0.0
aF32.086247834178295
aF20.96304215667775
aF0.0
aF32.749304077288365
aF0.0
aF0.0
aF0.0
aF0.0
aF0.0
asS'Bacteria.Firmicutes.Bacilli.Bacillales.Paenibacillaceae_1.Cohnella'
p297
(lp298
F0.0
aF0.0
aF0.0
aF0.0
aF22.23309173373647
aF0.0
aF0.0
aF72535.32506239117
aF16.091917030075837
aF0.0
aF0.0
aF0.0
aF0.0
aF0.0
aF38.033659788913184
aF0.0
aF0.0
aF0.0
aF0.0
aF0.0
aF0.0
aF17.703815172169648
aF0.0
aF0.0
aF0.0
aF0.0
aF0.0
aF0.0
aF0.0
aF0.0
aF0.0
aF0.0
aF0.0
asS'Bacteria.Deinococcus_Thermus.Deinococci.Deinococcales.Deinococcaceae'
p299
(lp300
F0.0
aF0.0
aF0.0
aF0.0
aF0.0
aF18.052822558807087
aF134.51482185193288
aF592.4915165987394
aF7450.557584925092
aF2816.3783231716734
aF0.0
aF167.9793945276046
aF49.54010271314623
aF0.0
aF19.016829894456592
aF0.0
aF33.988172116103556
aF0.0
aF0.0
aF69.79503524649273
aF0.0
aF814.3754979198021
aF17.29864378632715
aF2973.5451445563053
aF1475.9674003721987
aF125.77825294006651
aF148.63012567502895
aF0.0
aF18.76912104206157
aF0.0
aF158.78336656022307
aF0.0
aF0.0
asS'Bacteria.Bacteroidetes.Sphingobacteriia.Sphingobacteriales.Sphingobacteriaceae.Unassigned'
p301
(lp302
F0.0
aF0.0
aF3553.3409573599074
aF0.0
aF9982.658188447682
aF0.0
aF0.0
aF17.954288381779996
aF0.0
aF0.0
aF0.0
aF0.0
aF0.0
aF2780.2381655348845
aF0.0
aF0.0
aF0.0
aF0.0
aF17.59695924544241
aF0.0
aF500.02000080003165
aF17.703815172169648
aF640.0498200941043
aF0.0
aF16.043123917089147
aF0.0
aF0.0
aF0.0
aF0.0
aF0.0
aF0.0
aF91.16809116809114
aF0.0
asS'Bacteria.Proteobacteria.Unassigned.Unassigned.Unassigned'
p303
(lp304
F113.57183418512166
aF17.993054680893188
aF367.58699558895603
aF147.09006815173183
aF222.33091733736472
aF36.10564511761417
aF168.14352731491587
aF17.954288381779996
aF16.091917030075837
aF0.0
aF136.6120218579231
aF0.0
aF33.026735142097486
aF270.642653282157
aF38.033659788913184
aF52.916585821882705
aF1818.3672082115434
aF3692.023690485344
aF8640.106989512213
aF116.32505874415456
aF860.0344013760548
aF0.0
aF726.5430390257401
aF16.160571437805984
aF705.897452351922
aF20.96304215667775
aF0.0
aF180.12117242508634
aF131.3838472944309
aF0.0
aF12579.171150826536
aF5766.381766381764
aF42.05833491052087
asS'Bacteria.Firmicutes'
p305
(lp306
F286522.8090100325
aF147003.256742897
aF126164.0254860316
aF6929.576544037134
aF199630.93067722025
aF508620.2227718307
aF332806.48361441324
aF104870.99843797689
aF60409.05653090451
aF19590.85141283152
aF38490.43715846994
aF652189.3314420091
aF20063.7415988242
aF191319.75199291378
aF230674.14661975828
aF11377.065951704753
aF501206.5801101212
aF214541.1891392968
aF185929.4713873446
aF17472.02382337203
aF1060.0424016960696
aF270585.1110914406
aF115779.82286188805
aF35343.1697344818
aF399233.13867676276
aF4737.647527409183
aF66090.86255016268
aF434092.0255444575
aF2083.3724356688413
aF49210.650138724435
aF257881.8298900869
aF60900.284900284845
aF51942.043614493305
asS'Bacteria.Actinobacteria.Actinobacteria.Actinomycetales.Nocardiaceae.Rhodococcus'
p307
(lp308
F132.5004732159758
aF5433.902513629732
aF551.3804933834346
aF179.77674996322722
aF133.39855040241883
aF992.9052407343887
aF1799.1357422695996
aF1202.9373215792616
aF772.412017443638
aF294.0175172541861
aF273.2240437158473
aF37.32875433946768
aF297.240616278878
aF369.05816356657806
aF1616.4305410288084
aF2963.3288060254345
aF407.8580653932433
aF807.6301822936701
aF193.56655169986624
aF814.2754112090819
aF1960.0784031361227
aF2938.8333185801553
aF2248.823692222534
aF1244.3640007110614
aF144.38811525380171
aF7295.1386705238665
aF1502.81571515862
aF81.87326019322094
aF2458.7548565100665
aF0.0
aF194.06855912916106
aF478.6324786324785
aF42.05833491052087
asS'Bacteria.Bacteroidetes.Flavobacteriia.Flavobacteriales.Flavobacteriaceae.Chryseobacterium'
p309
(lp310
F397.50141964792743
aF11929.395253432174
aF24710.014703479803
aF555.6735907954298
aF60451.77642402951
aF16879.389092484584
aF4657.575706623177
aF56250.785500116646
aF4602.288270601676
aF10785.800501377285
aF52834.69945355194
aF55.99313150920157
aF165.13367571048744
aF3026.2769412459443
aF4906.342112769806
aF73712.80404988264
aF424.8521514512942
aF6749.480809168527
aF9783.90934046596
aF72796.22176209198
aF176387.05548221964
aF177781.71195892742
aF111264.87683365674
aF152442.67037282398
aF159773.4710902907
aF38173.699767310216
aF28272.75279507212
aF10054.036351727525
aF825.8413258507098
aF32.4501484594292
aF61943.15555477144
aF43692.30769230771
aF63.08750236578131
asS'Bacteria.Unassigned.Unassigned.Unassigned.Unassigned'
p311
(lp312
F4523.944728374028
aF2932.867912985591
aF7760.169906877964
aF2304.4110677104604
aF8159.544666281295
aF6679.544346758609
aF5918.652161485041
aF6284.000933622994
aF7788.4878425566885
aF4255.516697100057
aF4849.726775956288
aF1698.4583224457826
aF5119.1439470251125
aF8045.467965751407
aF6998.19340116003
aF5450.408339653925
aF2753.041941404395
aF4076.609491577568
aF2340.3955796438386
aF3443.2217388269764
aF3040.1216048641945
aF4018.7660440824957
aF34.5972875726543
aF1616.0571437805982
aF0.0
aF31968.639288933584
aF9330.669000710124
aF4503.029310627154
aF3340.903545486966
aF2579.786802524619
aF1570.1910693177608
aF0.0
aF1135.5750425840658
asS'Bacteria.Proteobacteria.Gammaproteobacteria.Chromatiales.Chromatiaceae'
p313
(lp314
F0.0
aF0.0
aF0.0
aF0.0
aF0.0
aF0.0
aF0.0
aF0.0
aF0.0
aF0.0
aF0.0
aF0.0
aF0.0
aF0.0
aF0.0
aF0.0
aF0.0
aF0.0
aF0.0
aF0.0
aF0.0
aF0.0
aF0.0
aF11748.735435284976
aF0.0
aF0.0
aF82.57229204168254
aF0.0
aF0.0
aF0.0
aF0.0
aF0.0
aF0.0
asS'Bacteria.Actinobacteria.Actinobacteria.Actinomycetales.Dermabacteraceae'
p315
(lp316
F0.0
aF2087.194342983605
aF81.68599901976799
aF1438.2139997058239
aF311.26328427231056
aF25237.845937212325
aF1715.0639786121446
aF89.7714419089
aF836.7796855639417
aF185.69527405527577
aF34.153005464480884
aF1754.4514539549814
aF809.1550109813893
aF0.0
aF12494.057240658021
aF4321.521175453761
aF50.98225817415538
aF134.60503038227853
aF52.79087773632713
aF23.26501174883091
aF0.0
aF2000.5311144551629
aF1193.6064212565698
aF16.160571437805984
aF1828.9161265481655
aF62.88912647003336
aF1750.5325912836715
aF966.1044702800067
aF300.3059366729853
aF16.22507422971465
aF158.78336656022307
aF113.96011396011379
aF126.1750047315622
asS'Bacteria.Proteobacteria.Betaproteobacteria.Burkholderiales.Unassigned'
p317
(lp318
F0.0
aF0.0
aF0.0
aF65.3733636229918
aF0.0
aF0.0
aF0.0
aF17.954288381779996
aF0.0
aF0.0
aF0.0
aF0.0
aF0.0
aF0.0
aF0.0
aF0.0
aF0.0
aF0.0
aF17.59695924544241
aF0.0
aF3440.1376055042256
aF0.0
aF0.0
aF0.0
aF0.0
aF0.0
aF0.0
aF16.374652038644232
aF18.76912104206157
aF0.0
aF0.0
aF45.58404558404551
aF0.0
asS'Bacteria.Firmicutes.Clostridia.Clostridiales.Clostridiaceae_1'
p319
(lp320
F209710.3918228278
aF35.986109361786376
aF43559.05897729131
aF49.0300227172438
aF84174.48530392638
aF343.00362861733424
aF50.44305819447476
aF2549.5089502127585
aF128.7353362406065
aF15.474606171272898
aF11612.021857923455
aF0.0
aF16.513367571048743
aF137363.4484794804
aF76.06731957782637
aF35.27772388125517
aF2481.1365644755574
aF76.91716021844478
aF545.5057366087135
aF0.0
aF40.00160006400254
aF17.703815172169648
aF155.68779407694458
aF129.2845715024487
aF288.77623050760445
aF83.8521686267111
aF6556.239988109595
aF32.749304077288365
aF56.30736312618481
aF45527.55828857916
aF35.28519256893841
aF0.0
aF0.0
asS'Bacteria.Firmicutes.Bacilli.Lactobacillales.Enterococcaceae'
p321
(lp322
F58167.707741813356
aF17.993054680893188
aF21299.624244404553
aF32.6866818114959
aF8648.672684423495
aF559.637499323019
aF16.814352731491585
aF89.7714419089
aF193.10300436090918
aF0.0
aF1912.56830601093
aF205.3081488670722
aF66.05347028419507
aF5117.606534789885
aF551.4880669392414
aF0.0
aF494188.02256814594
aF269.21006076455706
aF10399.802914056474
aF0.0
aF80.00320012800518
aF17.703815172169648
aF0.0
aF16.160571437805984
aF0.0
aF377.33475882020053
aF198.17350090003822
aF605.8621254298351
aF0.0
aF81.12537114857305
aF176.42596284469207
aF113.96011396011379
aF42.05833491052087
asS'Bacteria.Proteobacteria.Betaproteobacteria.Burkholderiales.Alcaligenaceae.Advenella'
p323
(lp324
F0.0
aF71.97221872357265
aF61.264499264826064
aF0.0
aF0.0
aF0.0
aF100.88611638894963
aF0.0
aF0.0
aF92.8476370276377
aF0.0
aF55.99313150920157
aF0.0
aF0.0
aF0.0
aF0.0
aF16.994086058051828
aF0.0
aF17.59695924544241
aF23.26501174883091
aF40.00160006400254
aF0.0
aF0.0
aF0.0
aF0.0
aF0.0
aF0.0
aF0.0
aF0.0
aF140006.16552820723
aF0.0
aF0.0
aF0.0
asS'Bacteria.Proteobacteria.Alphaproteobacteria.Caulobacterales.Caulobacteraceae.Phenylobacterium'
p325
(lp326
F0.0
aF0.0
aF0.0
aF0.0
aF0.0
aF0.0
aF0.0
aF3285.6347738657328
aF0.0
aF0.0
aF0.0
aF0.0
aF0.0
aF0.0
aF0.0
aF0.0
aF16.994086058051828
aF0.0
aF0.0
aF0.0
aF0.0
aF0.0
aF0.0
aF0.0
aF0.0
aF0.0
aF974.3530460918535
aF0.0
aF0.0
aF0.0
aF0.0
aF0.0
aF0.0
asS'Bacteria.Firmicutes.Bacilli.Bacillales.Planococcaceae.Planococcus'
p327
(lp328
F0.0
aF971.624952768231
aF0.0
aF3154.264794809355
aF0.0
aF1552.54274005741
aF5868.209103290572
aF215.45146058135998
aF1657.467454097806
aF897.5271579338311
aF0.0
aF261.30128037627406
aF710.0748055550966
aF0.0
aF171.15146905010954
aF829.0265112094959
aF0.0
aF0.0
aF0.0
aF0.0
aF0.0
aF53.111445516508844
aF121.09050650428965
aF16.160571437805984
aF7925.30321504203
aF62.88912647003336
aF2906.5446798672256
aF49.123956115932586
aF131.3838472944309
aF16.22507422971465
aF17.642596284469207
aF0.0
aF0.0
asS'Bacteria.Proteobacteria.Unassigned.Unassigned.Unassigned.Unassigned'
p329
(lp330
F113.57183418512166
aF17.993054680893188
aF367.58699558895603
aF147.09006815173183
aF222.33091733736472
aF36.10564511761417
aF168.14352731491587
aF17.954288381779996
aF16.091917030075837
aF0.0
aF136.6120218579231
aF0.0
aF33.026735142097486
aF270.642653282157
aF38.033659788913184
aF52.916585821882705
aF1818.3672082115434
aF3692.023690485344
aF8640.106989512213
aF116.32505874415456
aF860.0344013760548
aF0.0
aF726.5430390257401
aF16.160571437805984
aF705.897452351922
aF20.96304215667775
aF0.0
aF180.12117242508634
aF131.3838472944309
aF0.0
aF12579.171150826536
aF5766.381766381764
aF42.05833491052087
asS'Bacteria.Bacteroidetes.Cytophagia.Cytophagales.Cyclobacteriaceae'
p331
(lp332
F0.0
aF11749.464706623246
aF0.0
aF0.0
aF0.0
aF18.052822558807087
aF0.0
aF17.954288381779996
aF0.0
aF0.0
aF0.0
aF0.0
aF0.0
aF0.0
aF0.0
aF0.0
aF0.0
aF0.0
aF0.0
aF0.0
aF0.0
aF0.0
aF0.0
aF2876.5817159294747
aF0.0
aF0.0
aF3699.238683467372
aF0.0
aF0.0
aF0.0
aF0.0
aF0.0
aF0.0
asS'Bacteria.Actinobacteria.Actinobacteria.Actinomycetales.Micrococcaceae'
p333
(lp334
F1097.861063789519
aF104287.74493045686
aF1592.8769808854806
aF7697.713566607287
aF755.9251189470411
aF45529.21849331144
aF193835.85828863492
aF28906.40429466574
aF129861.77043271149
aF537696.1406332211
aF819.6721311475418
aF36563.514875508634
aF15241.838268077981
aF861.1357149886821
aF30693.163449652955
aF217152.02935106654
aF1699.408605805183
aF3384.355049611564
aF1249.3841064264059
aF41737.43107740269
aF3840.153606144247
aF32769.76188368599
aF43869.36064212563
aF5753.1634318589495
aF46797.79246614902
aF9747.814602855167
aF15837.365613594686
aF8351.072539708535
aF13851.611329041416
aF2855.6130644297696
aF7145.251495210034
aF9299.145299145299
aF2565.558429541776
asS'Bacteria.Actinobacteria.Actinobacteria.Actinomycetales.Dermabacteraceae.Brachybacterium'
p335
(lp336
F0.0
aF2087.194342983605
aF81.68599901976799
aF1438.2139997058239
aF311.26328427231056
aF25237.845937212325
aF1715.0639786121446
aF89.7714419089
aF836.7796855639417
aF185.69527405527577
aF34.153005464480884
aF1754.4514539549814
aF809.1550109813893
aF0.0
aF12494.057240658021
aF4321.521175453761
aF50.98225817415538
aF134.60503038227853
aF52.79087773632713
aF23.26501174883091
aF0.0
aF2000.5311144551629
aF1193.6064212565698
aF16.160571437805984
aF1828.9161265481655
aF62.88912647003336
aF1750.5325912836715
aF966.1044702800067
aF300.3059366729853
aF16.22507422971465
aF158.78336656022307
aF113.96011396011379
aF126.1750047315622
asS'Bacteria.Proteobacteria.Betaproteobacteria.Burkholderiales.Comamonadaceae.Delftia'
p337
(lp338
F7155.0255536626955
aF233.90971085161158
aF44151.282470184626
aF0.0
aF1689.7149717639784
aF306.8979834997203
aF0.0
aF19121.31712659569
aF96.55150218045482
aF0.0
aF43101.0928961749
aF18.664377169733893
aF0.0
aF14368.664501525414
aF304.26927831130524
aF934.8596828532617
aF0.0
aF0.0
aF334.3422256634051
aF209.3851057394788
aF1320.0528021120863
aF3540.7630344339195
aF138.38915029061764
aF4056.303430889316
aF385.03497401013897
aF1111.0412343039213
aF13723.514937327587
aF163.7465203864423
aF394.15154188329365
aF32.4501484594292
aF0.0
aF227.92022792022757
aF2944.083443736465
asS'Bacteria.Proteobacteria.Alphaproteobacteria.Caulobacterales'
p339
(lp340
F15218.625780806326
aF74113.39223059898
aF5207.482437510209
aF85116.11943713528
aF778.158210680777
aF1209.5391114400684
aF605.3166983336974
aF28206.18704777639
aF28756.255732745434
aF11296.462505029256
aF9562.84153005465
aF26036.80615177872
aF42984.29578743987
aF12351.14654069484
aF56575.06893600834
aF9648.457481523285
aF1070.6274216572644
aF1326.8210137681742
aF5754.205673259653
aF166321.5689923918
aF246209.84839393626
aF66566.34504735774
aF4774.425685026289
aF65935.13146624864
aF9160.623756657891
aF104940.98903632867
aF10106.848545901941
aF7188.472244964796
aF103211.39661029668
aF125208.89783070798
aF1146.7687584905004
aF478.6324786324785
aF988.3708703972407
asS'Bacteria.Bacteroidetes.Cytophagia.Cytophagales.Cyclobacteriaceae.Algoriphagus'
p341
(lp342
F0.0
aF11749.464706623246
aF0.0
aF0.0
aF0.0
aF18.052822558807087
aF0.0
aF17.954288381779996
aF0.0
aF0.0
aF0.0
aF0.0
aF0.0
aF0.0
aF0.0
aF0.0
aF0.0
aF0.0
aF0.0
aF0.0
aF0.0
aF0.0
aF0.0
aF2876.5817159294747
aF0.0
aF0.0
aF3699.238683467372
aF0.0
aF0.0
aF0.0
aF0.0
aF0.0
aF0.0
asS'Bacteria.Firmicutes.Bacilli.Lactobacillales.Lactobacillaceae.Lactobacillus'
p343
(lp344
F4145.371947756956
aF0.0
aF0.0
aF0.0
aF22.23309173373647
aF0.0
aF0.0
aF0.0
aF0.0
aF0.0
aF0.0
aF55.99313150920157
aF0.0
aF0.0
aF0.0
aF0.0
aF0.0
aF0.0
aF0.0
aF0.0
aF0.0
aF0.0
aF0.0
aF0.0
aF0.0
aF0.0
aF0.0
aF0.0
aF0.0
aF0.0
aF0.0
aF0.0
aF0.0
asS'Bacteria.Firmicutes.Clostridia.Clostridiales.Lachnospiraceae'
p345
(lp346
F5735.377626348672
aF179.9305468089319
aF1164.025486031692
aF16.343340905747898
aF59918.18222241985
aF523.5318542054051
aF235.40093824088282
aF35.90857676355999
aF160.91917030075837
aF0.0
aF1024.5901639344265
aF74.65750867893536
aF297.240616278878
aF7996.260210609192
aF0.0
aF370.4161007531793
aF271.90537692882884
aF4845.781093762017
aF162015.20377278794
aF279.1801409859707
aF240.0096003840158
aF35.407630344339196
aF207.58372543592543
aF48.48171431341805
aF0.0
aF754.6695176404
aF280.74579294172
aF16.374652038644232
aF243.99857354680051
aF194.7008907565754
aF35.28519256893841
aF68.37606837606837
aF147.20417218682326
asS'Bacteria.Firmicutes.Clostridia.Clostridiales.Clostridiaceae_1.Clostridium_sensu_stricto'
p347
(lp348
F209710.3918228278
aF35.986109361786376
aF43559.05897729131
aF49.0300227172438
aF84174.48530392638
aF343.00362861733424
aF50.44305819447476
aF2549.5089502127585
aF128.7353362406065
aF15.474606171272898
aF11612.021857923455
aF0.0
aF16.513367571048743
aF137363.4484794804
aF76.06731957782637
aF35.27772388125517
aF2481.1365644755574
aF76.91716021844478
aF545.5057366087135
aF0.0
aF40.00160006400254
aF17.703815172169648
aF155.68779407694458
aF129.2845715024487
aF288.77623050760445
aF83.8521686267111
aF6556.239988109595
aF32.749304077288365
aF56.30736312618481
aF45527.55828857916
aF35.28519256893841
aF0.0
aF0.0
asS'Bacteria.Firmicutes.Negativicutes'
p349
(lp350
F0.0
aF0.0
aF326.7439960790726
aF16.343340905747898
aF155.63164213615585
aF0.0
aF0.0
aF0.0
aF0.0
aF0.0
aF0.0
aF0.0
aF0.0
aF98.4155102844208
aF0.0
aF0.0
aF0.0
aF19.22929005461122
aF2058.844231716759
aF23.26501174883091
aF0.0
aF0.0
aF4722.529753667309
aF0.0
aF0.0
aF20.96304215667775
aF132.11566726669216
aF0.0
aF0.0
aF16.22507422971465
aF0.0
aF16957.264957264942
aF33015.79290475888
asS'Bacteria.Proteobacteria.Gammaproteobacteria.Xanthomonadales.Xanthomonadaceae.Stenotrophomonas'
p351
(lp352
F6378.9513533976915
aF1475.4304838332368
aF6126.449926482606
aF9642.57113439129
aF266.79710080483767
aF1353.9616919105263
aF470.8018764817646
aF718.1715352712
aF6436.766812030324
aF278.5429110829132
aF1366.1202185792313
aF5058.046212997874
aF50795.11864854603
aF123.01938785552602
aF7074.260720737852
aF8554.848041204374
aF509.82258174155385
aF2076.7633258980118
aF4540.015485324133
aF2768.5363981108826
aF3060.1224048961963
aF13348.676639815865
aF743.841682812068
aF15223.258294413268
aF2711.2879419880614
aF15806.133786135035
aF1321.1566726669216
aF589.4874733911911
aF9966.403273334705
aF178573.16697223927
aF52.927788853407726
aF2917.3789173789182
aF4899.796017075687
asS'Bacteria.Firmicutes.Bacilli.Bacillales.Paenibacillaceae_1.Saccharibacillus'
p353
(lp354
F0.0
aF0.0
aF42680.93448782878
aF0.0
aF10071.590555382632
aF18.052822558807087
aF0.0
aF0.0
aF0.0
aF0.0
aF1161.2021857923455
aF0.0
aF0.0
aF1943.7063281173125
aF19.016829894456592
aF0.0
aF0.0
aF0.0
aF0.0
aF0.0
aF0.0
aF0.0
aF0.0
aF0.0
aF0.0
aF0.0
aF0.0
aF0.0
aF0.0
aF0.0
aF0.0
aF0.0
aF0.0
asS'Bacteria.Firmicutes.Bacilli.Bacillales.Bacillaceae_2.Terribacillus'
p355
(lp356
F94.64319515426847
aF0.0
aF183.79349779447853
aF0.0
aF44.46618346747294
aF649.9016121170545
aF0.0
aF53.862865145339995
aF0.0
aF0.0
aF34.153005464480884
aF1829.1089626339162
aF0.0
aF0.0
aF798.7068555671776
aF0.0
aF0.0
aF0.0
aF0.0
aF0.0
aF0.0
aF0.0
aF0.0
aF0.0
aF0.0
aF0.0
aF0.0
aF0.0
aF0.0
aF0.0
aF0.0
aF0.0
aF0.0
asS'Bacteria.Actinobacteria.Actinobacteria.Actinomycetales.Micrococcaceae.Rothia'
p357
(lp358
F75.71455612341475
aF35.986109361786376
aF0.0
aF179.77674996322722
aF66.69927520120953
aF379.1092737349482
aF16.814352731491585
aF0.0
aF0.0
aF0.0
aF0.0
aF18.664377169733893
aF0.0
aF246.03877571105204
aF665.5890463059808
aF0.0
aF764.7338726123309
aF346.12722098300094
aF211.16351094530833
aF0.0
aF0.0
aF88.51907586084805
aF17.29864378632715
aF0.0
aF64.17249566835649
aF0.0
aF33.02891681667304
aF32.749304077288365
aF0.0
aF0.0
aF511.63529224960723
aF113.96011396011379
aF42.05833491052087
asS'Bacteria.Firmicutes.Bacilli.Lactobacillales.Carnobacteriaceae'
p359
(lp360
F0.0
aF2914.8748583046877
aF9087.567390949196
aF0.0
aF9804.793454577793
aF417778.41965591355
aF1446.0343349082766
aF323.17719087204
aF337.93025763159216
aF15.474606171272898
aF0.0
aF746.5750867893537
aF132.10694056838955
aF2337.3683692549903
aF70495.38841875056
aF105.83317164376582
aF2464.1424784175047
aF47746.32720559959
aF263.9543886816357
aF23.26501174883091
aF20.00080003200127
aF16269.806143223892
aF4930.113479103242
aF32.32114287561207
aF27754.604376564243
aF20.96304215667775
aF49.54337522500951
aF15539.544784673362
aF243.99857354680051
aF1703.6327941200295
aF184153.42001728984
aF2051.282051282052
aF4668.47517506782
asS'Bacteria.Actinobacteria.Actinobacteria.Actinomycetales.Nocardioidaceae'
p361
(lp362
F397.50141964792743
aF4498.263670223292
aF0.0
aF0.0
aF0.0
aF0.0
aF0.0
aF520.6743630716194
aF177.0110873308338
aF0.0
aF0.0
aF0.0
aF0.0
aF0.0
aF19.016829894456592
aF0.0
aF0.0
aF0.0
aF0.0
aF0.0
aF0.0
aF141.63052137735679
aF51.895931358981464
aF0.0
aF16.043123917089147
aF0.0
aF0.0
aF0.0
aF0.0
aF16.22507422971465
aF0.0
aF0.0
aF0.0
asS'Bacteria.Unassigned.Unassigned'
p363
(lp364
F4523.944728374028
aF2932.867912985591
aF7760.169906877964
aF2304.4110677104604
aF8159.544666281295
aF6679.544346758609
aF5918.652161485041
aF6284.000933622994
aF7788.4878425566885
aF4255.516697100057
aF4849.726775956288
aF1698.4583224457826
aF5119.1439470251125
aF8045.467965751407
aF6998.19340116003
aF5450.408339653925
aF2753.041941404395
aF4076.609491577568
aF2340.3955796438386
aF3443.2217388269764
aF3040.1216048641945
aF4018.7660440824957
aF34.5972875726543
aF1616.0571437805982
aF0.0
aF31968.639288933584
aF9330.669000710124
aF4503.029310627154
aF3340.903545486966
aF2579.786802524619
aF1570.1910693177608
aF0.0
aF1135.5750425840658
asS'Bacteria.Actinobacteria.Actinobacteria.Actinomycetales.Microbacteriaceae.Plantibacter'
p365
(lp366
F0.0
aF503.8055310650089
aF20.421499754942023
aF1013.2871361563724
aF0.0
aF54.15846767642116
aF504.4305819447476
aF3231.7719087204
aF225.28683842106108
aF263.06830491164027
aF0.0
aF37.32875433946768
aF429.3475568472676
aF24.6038775711052
aF19.016829894456592
aF17.638861940627535
aF33.988172116103556
aF115.37574032766732
aF123.17871471809678
aF1139.9855756927102
aF11980.47921916876
aF70.81526068867839
aF103.79186271796272
aF323.21142875612065
aF80.21561958544564
aF314.4456323501668
aF148.63012567502895
aF98.24791223186509
aF243.99857354680051
aF48.67522268914385
aF0.0
aF0.0
aF42.05833491052087
asS'Bacteria.Bacteroidetes.Unassigned.Unassigned'
p367
(lp368
F0.0
aF0.0
aF0.0
aF0.0
aF0.0
aF0.0
aF0.0
aF4721.977844408133
aF0.0
aF0.0
aF0.0
aF0.0
aF0.0
aF0.0
aF0.0
aF0.0
aF0.0
aF0.0
aF0.0
aF0.0
aF0.0
aF0.0
aF0.0
aF0.0
aF0.0
aF0.0
aF0.0
aF0.0
aF0.0
aF0.0
aF0.0
aF0.0
aF0.0
asS'Bacteria.Firmicutes.Bacilli.Bacillales.Paenibacillaceae_1'
p369
(lp370
F56.78591709256104
aF4426.291451499721
aF48031.36742362364
aF179.77674996322722
aF17430.743919249442
aF433.2677414113696
aF11517.831621071746
aF88101.69308939441
aF2880.4531483835713
aF572.5604283370992
aF11407.103825136663
aF4292.806749038787
aF49.54010271314623
aF16779.84450349378
aF456.4039174669585
aF1322.9146455470727
aF84.97043029025895
aF96742.5582647488
aF7742.662067994649
aF69.79503524649273
aF0.0
aF3080.4638399575133
aF40063.659009133706
aF32175.69773267176
aF1652.441763460182
aF272.5195480368113
aF3022.145888725581
aF1719.338464057638
aF93.84560521030795
aF356.9516330537209
aF6933.540339796404
aF19076.9230769231
aF13563.813008642992
asS'Bacteria.Bacteroidetes.Flavobacteriia'
p371
(lp372
F9899.678213136476
aF152437.15925652732
aF31592.060120895287
aF131514.86426855347
aF68611.3210903108
aF17511.23788204283
aF5851.394750559079
aF121388.94374921409
aF4875.850860112962
aF10956.021169261276
aF80020.49180327868
aF130.65064018813703
aF214.67377842363427
aF5388.249188072043
aF5628.981648759154
aF109837.193304288
aF679.7634423220711
aF7287.900930697641
aF19374.25212923201
aF105157.85310471582
aF247209.88839553637
aF185978.57838364126
aF115900.91336839159
aF192019.9098240115
aF161441.9559776675
aF44693.205878037086
aF52136.14519511838
aF10381.529392500397
aF94183.44938906505
aF162120.94170330846
aF63795.628164640686
aF46017.094017094045
aF231.3208420078644
asS'Bacteria.Proteobacteria.Gammaproteobacteria.Oceanospirillales.Halomonadaceae.Halomonas'
p373
(lp374
F0.0
aF0.0
aF0.0
aF0.0
aF0.0
aF18.052822558807087
aF0.0
aF0.0
aF0.0
aF0.0
aF0.0
aF0.0
aF16.513367571048743
aF0.0
aF0.0
aF0.0
aF0.0
aF0.0
aF35.19391849088472
aF46.53002349766182
aF0.0
aF0.0
aF0.0
aF0.0
aF0.0
aF0.0
aF17951.216289861786
aF0.0
aF0.0
aF0.0
aF0.0
aF0.0
aF210.29167455260435
asS'Bacteria.Actinobacteria.Actinobacteria.Actinomycetales.Brevibacteriaceae.Brevibacterium'
p375
(lp376
F0.0
aF35.986109361786376
aF0.0
aF16.343340905747898
aF44.46618346747294
aF397.16209629375567
aF134.51482185193288
aF35.90857676355999
aF193.10300436090918
aF30.9492123425459
aF102.45901639344265
aF8063.010937325017
aF165.13367571048744
aF0.0
aF627.555386517068
aF335.1383768719241
aF0.0
aF19.22929005461122
aF35.19391849088472
aF46.53002349766182
aF0.0
aF460.2991944764101
aF103.79186271796272
aF32.32114287561207
aF80.21561958544564
aF0.0
aF16.51445840833647
aF196.49582446373034
aF18.76912104206157
aF0.0
aF105.85557770681505
aF205.12820512820522
aF0.0
asS'Bacteria.Proteobacteria.Alphaproteobacteria.Rhizobiales.Rhizobiaceae.Rhizobium'
p377
(lp378
F2025.3643763013451
aF4228.367850009889
aF551.3804933834346
aF130.7467272459836
aF155.63164213615585
aF577.6903218818265
aF470.8018764817646
aF38942.85150008084
aF1013.7907728947754
aF263.06830491164027
aF4474.043715846997
aF74.65750867893536
aF165.13367571048744
aF787.3240822753662
aF2243.9859275458807
aF5591.519235178949
aF407.8580653932433
aF423.0443812014458
aF175.96959245442412
aF2163.6460926412738
aF20.00080003200127
aF3168.9829158183634
aF242.18101300858035
aF273840.8830136235
aF352.9487261759605
aF19453.703121396942
aF351460.70384621725
aF180.12117242508634
aF8033.183806002364
aF252721.75620203483
aF70.57038513787694
aF250.71225071225098
aF63.08750236578131
asS'Bacteria.Proteobacteria.Alphaproteobacteria.Sphingomonadales'
p379
(lp380
F56.78591709256104
aF431.83331234143634
aF285.9009965691881
aF62693.05571444908
aF244.56400907110174
aF487.4262090877911
aF84.07176365745804
aF12603.910444009603
aF139307.72572936633
aF32976.38575098269
aF2049.180327868857
aF93.32188584866924
aF49.54010271314623
aF369.05816356657806
aF228.20195873347868
aF123.47203358439347
aF169.9408605805183
aF115.37574032766732
aF35.19391849088472
aF1023.6605169485607
aF3840.153606144247
aF442.5953793042402
aF121.09050650428965
aF69280.36975387447
aF160.43123917089147
aF8049.808188164271
aF50319.55477020129
aF163.7465203864423
aF154676.32650762936
aF16.22507422971465
aF70.57038513787694
aF159.54415954415953
aF42.05833491052087
asS'Bacteria.Firmicutes.Bacilli.Bacillales.Staphylococcaceae.Staphylococcus'
p381
(lp382
F1343.933371190607
aF3454.6664987314844
aF285.9009965691881
aF490.30022717243804
aF5247.009649161813
aF32657.556008881984
aF2303.566324214349
aF215.45146058135998
aF6163.204222519028
aF1609.3590418123833
aF6454.918032786885
aF387621.78506103274
aF3335.700249351851
aF492.0775514221041
aF108205.76209945758
aF299.86065299066877
aF1206.580110121678
aF865.3180524575027
aF70.38783698176955
aF23.26501174883091
aF200.00800032001268
aF5859.962821988141
aF830.3349017437038
aF96.9634286268362
aF2037.4767374703201
aF146.74129509674478
aF231.20241771671076
aF6844.604552153269
aF431.6897839674162
aF259.6011876754332
aF1711.3318395935107
aF797.7207977207976
aF168.23333964208328
asS'Bacteria.Bacteroidetes.Sphingobacteriia.Sphingobacteriales.Chitinophagaceae'
p383
(lp384
F0.0
aF0.0
aF0.0
aF16.343340905747898
aF0.0
aF0.0
aF0.0
aF15045.69366393163
aF0.0
aF46.423818513818794
aF0.0
aF0.0
aF0.0
aF0.0
aF0.0
aF0.0
aF0.0
aF0.0
aF0.0
aF0.0
aF0.0
aF0.0
aF0.0
aF0.0
aF0.0
aF0.0
aF0.0
aF0.0
aF0.0
aF0.0
aF0.0
aF0.0
aF0.0
asS'Bacteria.Firmicutes.Clostridia.Clostridiales.Peptococcaceae_1.Desulfosporosinus'
p385
(lp386
F0.0
aF0.0
aF0.0
aF0.0
aF956.0229445506687
aF0.0
aF0.0
aF0.0
aF0.0
aF0.0
aF0.0
aF0.0
aF0.0
aF0.0
aF0.0
aF0.0
aF0.0
aF0.0
aF0.0
aF0.0
aF0.0
aF0.0
aF0.0
aF0.0
aF0.0
aF0.0
aF4293.75918616749
aF0.0
aF0.0
aF0.0
aF0.0
aF0.0
aF0.0
asS'Bacteria.Proteobacteria.Alphaproteobacteria.Sphingomonadales.Sphingomonadaceae.Novosphingobium'
p387
(lp388
F0.0
aF0.0
aF0.0
aF49.0300227172438
aF0.0
aF162.47540302926336
aF0.0
aF251.36003734492
aF16.091917030075837
aF30.9492123425459
aF0.0
aF0.0
aF0.0
aF0.0
aF38.033659788913184
aF0.0
aF0.0
aF19.22929005461122
aF0.0
aF69.79503524649273
aF20.00080003200127
aF0.0
aF0.0
aF18730.102296417153
aF0.0
aF20.96304215667775
aF10470.166630885347
aF16.374652038644232
aF0.0
aF0.0
aF0.0
aF0.0
aF0.0
asS'Bacteria.Firmicutes.Clostridia.Clostridiales.Clostridiales_Incertae_Sedis_XI.Sedimentibacter'
p389
(lp390
F0.0
aF0.0
aF20.421499754942023
aF0.0
aF3446.129218729161
aF0.0
aF0.0
aF0.0
aF0.0
aF0.0
aF0.0
aF0.0
aF0.0
aF18305.284912902294
aF0.0
aF0.0
aF0.0
aF0.0
aF0.0
aF0.0
aF0.0
aF0.0
aF0.0
aF0.0
aF16.043123917089147
aF0.0
aF0.0
aF0.0
aF0.0
aF0.0
aF0.0
aF0.0
aF0.0
asS'Bacteria.Proteobacteria.Gammaproteobacteria.Pseudomonadales'
p391
(lp392
F72572.40204429305
aF422674.84750886133
aF198884.98611338003
aF526615.1306650102
aF261216.5947796697
aF30292.636253678298
aF299900.7953188845
aF131856.29387579186
aF51655.05366654327
aF260514.99489337992
aF483640.7103825136
aF174810.55657172683
aF355186.02308568754
aF409457.73053833324
aF401844.6324997628
aF379729.4198578304
aF82200.39426279653
aF301034.5358049385
aF155398.7470965012
aF273782.658260242
aF116104.64418576792
aF311321.58980260283
aF553781.4835316911
aF154107.20923091832
aF293990.2457806581
aF368152.94635557506
aF234108.9623965781
aF397380.05567381706
aF472963.0811389105
aF340.72655882400693
aF334680.05151638086
aF514871.794871795
aF548398.6288982823
asS'Bacteria.Actinobacteria.Actinobacteria.Actinomycetales.Microbacteriaceae.Herbiconiux'
p393
(lp394
F56.78591709256104
aF17.993054680893188
aF0.0
aF32.6866818114959
aF44.46618346747294
aF72.21129023522823
aF16.814352731491585
aF3914.0348672280406
aF16.091917030075837
aF15.474606171272898
aF170.76502732240442
aF37.32875433946768
aF165.13367571048744
aF0.0
aF57.05048968336978
aF0.0
aF0.0
aF19.22929005461122
aF17.59695924544241
aF46.53002349766182
aF0.0
aF17.703815172169648
aF34.5972875726543
aF4282.551431018597
aF16.043123917089147
aF796.5956019537556
aF1486.3012567502894
aF0.0
aF4223.052234463856
aF0.0
aF17.642596284469207
aF0.0
aF0.0
asS'Bacteria.Firmicutes.Negativicutes.Selenomonadales.Veillonellaceae'
p395
(lp396
F0.0
aF0.0
aF326.7439960790726
aF16.343340905747898
aF155.63164213615585
aF0.0
aF0.0
aF0.0
aF0.0
aF0.0
aF0.0
aF0.0
aF0.0
aF98.4155102844208
aF0.0
aF0.0
aF0.0
aF19.22929005461122
aF2058.844231716759
aF23.26501174883091
aF0.0
aF0.0
aF4722.529753667309
aF0.0
aF0.0
aF20.96304215667775
aF132.11566726669216
aF0.0
aF0.0
aF16.22507422971465
aF0.0
aF16957.264957264942
aF33015.79290475888
asS'Bacteria.Proteobacteria.Gammaproteobacteria.Enterobacteriales.Enterobacteriaceae.Pantoea'
p397
(lp398
F1476.4338444065913
aF629.7569138312612
aF1980.885476229371
aF163.433409057479
aF1489.617146160343
aF2978.7157222031706
aF2992.9547862055015
aF1526.1145124513027
aF418.3898427819703
aF464.238185138188
aF2356.5573770491806
aF597.2600694314833
aF66.05347028419507
aF1648.4597972640463
aF6979.176571265566
aF335.1383768719241
aF4571.409149615927
aF14191.216060303017
aF15995.635954107092
aF0.0
aF0.0
aF88.51907586084805
aF380.57016329919696
aF5074.419431471097
aF64.17249566835649
aF0.0
aF16.51445840833647
aF130.99721630915323
aF1201.2237466919412
aF0.0
aF1834.8300135848008
aF843.3048433048432
aF3112.3167833785433
asS'Bacteria.Firmicutes.Bacilli.Lactobacillales.Carnobacteriaceae.Trichococcus'
p399
(lp400
F0.0
aF17.993054680893188
aF0.0
aF0.0
aF2868.0688336520116
aF51432.4914700413
aF0.0
aF35.90857676355999
aF32.18383406015157
aF0.0
aF0.0
aF0.0
aF0.0
aF0.0
aF190.16829894456592
aF0.0
aF1988.3080687920628
aF8422.429043919703
aF140.77567396353888
aF0.0
aF0.0
aF0.0
aF34.5972875726543
aF0.0
aF0.0
aF0.0
aF0.0
aF638.6114295071231
aF18.76912104206157
aF0.0
aF811.5594290855843
aF45.58404558404551
aF0.0
asS'Bacteria.Actinobacteria.Actinobacteria.Actinomycetales'
p401
(lp402
F85746.7348097672
aF141047.55564352171
aF27201.43767358274
aF18075.735041757278
aF7625.950464671615
aF93206.72287112082
aF207169.64000470843
aF96701.79722426705
aF658175.4984471304
aF648726.4399121046
aF19262.295081967197
aF135596.70013811605
aF522020.5756559935
aF12498.769806121447
aF95122.1831320719
aF312578.2724498614
aF9278.770987696278
aF9941.54295823398
aF4399.239811360598
aF52602.191564106746
aF22800.91203648146
aF105426.21935027046
aF108964.15721007428
aF35520.9360202977
aF62038.760187383676
aF59451.18755633821
aF38511.717008240696
aF13640.085148190585
aF64096.548358640386
aF76549.90021579346
aF43206.71830066511
aF45424.50142450144
aF6287.721069122875
asS'Bacteria.Firmicutes.Bacilli.Lactobacillales.Carnobacteriaceae.Carnobacterium'
p403
(lp404
F0.0
aF2788.9234755384373
aF4574.4159451070145
aF0.0
aF4580.016897149714
aF122560.61235174072
aF1345.1482185193288
aF143.63430705423997
aF80.45958515037897
aF15.474606171272898
aF0.0
aF186.6437716973389
aF115.59357299734162
aF2017.5179608306264
aF4145.66891699154
aF70.55544776251034
aF67.97634423220711
aF37824.01353742022
aF123.17871471809678
aF23.26501174883091
aF0.0
aF16216.694697707382
aF4514.946028231385
aF16.160571437805984
aF27578.13001347623
aF0.0
aF16.51445840833647
aF14720.81218274111
aF225.22945250473924
aF16.22507422971465
aF181806.95471145512
aF1982.9059829059793
aF4668.47517506782
asS'Bacteria.Proteobacteria.Betaproteobacteria.Burkholderiales.Comamonadaceae.Comamonas'
p405
(lp406
F18.928639030853716
aF0.0
aF0.0
aF16.343340905747898
aF66.69927520120953
aF36.10564511761417
aF0.0
aF0.0
aF32.18383406015157
aF0.0
aF13456.28415300552
aF0.0
aF0.0
aF24.6038775711052
aF0.0
aF0.0
aF16.994086058051828
aF57.68787016383355
aF0.0
aF0.0
aF0.0
aF0.0
aF882.2308331026846
aF0.0
aF0.0
aF17168.73152631909
aF0.0
aF2112.330112985097
aF0.0
aF0.0
aF264.6389442670381
aF0.0
aF0.0
asS'Bacteria.Bacteroidetes.Unassigned.Unassigned.Unassigned.Unassigned'
p407
(lp408
F0.0
aF0.0
aF0.0
aF0.0
aF0.0
aF0.0
aF0.0
aF4721.977844408133
aF0.0
aF0.0
aF0.0
aF0.0
aF0.0
aF0.0
aF0.0
aF0.0
aF0.0
aF0.0
aF0.0
aF0.0
aF0.0
aF0.0
aF0.0
aF0.0
aF0.0
aF0.0
aF0.0
aF0.0
aF0.0
aF0.0
aF0.0
aF0.0
aF0.0
asS'Bacteria.Bacteroidetes.Sphingobacteriia.Sphingobacteriales.Sphingobacteriaceae.Pedobacter'
p409
(lp410
F340.7155025553661
aF18694.78381344798
aF11701.519359581805
aF82027.22800594901
aF50735.915336386664
aF36.10564511761417
aF3480.571015418758
aF99807.889114315
aF0.0
aF77.3730308563647
aF2595.6284153005454
aF0.0
aF66.05347028419507
aF11711.445723846069
aF38.033659788913184
aF246.9440671687859
aF16.994086058051828
aF173.06361049150095
aF17.59695924544241
aF10213.340157736771
aF0.0
aF566.5220855094271
aF4290.063659009134
aF49677.59659981579
aF433.1643457614062
aF19474.66616355368
aF42755.93281918324
aF16.374652038644232
aF58709.81061956865
aF0.0
aF35.28519256893841
aF1139.601139601138
aF0.0
asS'Bacteria.Proteobacteria.Gammaproteobacteria.Oceanospirillales'
p411
(lp412
F0.0
aF0.0
aF0.0
aF0.0
aF0.0
aF18.052822558807087
aF0.0
aF0.0
aF0.0
aF0.0
aF0.0
aF0.0
aF16.513367571048743
aF0.0
aF0.0
aF0.0
aF0.0
aF0.0
aF35.19391849088472
aF46.53002349766182
aF0.0
aF0.0
aF0.0
aF0.0
aF0.0
aF0.0
aF17951.216289861786
aF0.0
aF0.0
aF0.0
aF0.0
aF0.0
aF210.29167455260435
asS'Bacteria.Firmicutes.Clostridia.Clostridiales.Eubacteriaceae.Alkalibaculum'
p413
(lp414
F0.0
aF0.0
aF0.0
aF0.0
aF44.46618346747294
aF0.0
aF0.0
aF0.0
aF0.0
aF0.0
aF0.0
aF0.0
aF0.0
aF0.0
aF19.016829894456592
aF0.0
aF0.0
aF0.0
aF0.0
aF0.0
aF0.0
aF0.0
aF0.0
aF0.0
aF0.0
aF0.0
aF8736.148498010007
aF0.0
aF0.0
aF0.0
aF0.0
aF0.0
aF0.0
asS'Bacteria.Actinobacteria.Actinobacteria.Actinomycetales.Microbacteriaceae.Microbacterium'
p415
(lp416
F2385.008517887569
aF11155.693902153791
aF2818.1669661819938
aF4559.792112703674
aF355.7294677397835
aF1877.4935461159323
aF6355.8253325038295
aF12460.2761369553
aF470559.8377934761
aF95772.33759400828
aF4815.573770491809
aF64037.47806935677
aF253034.3312911803
aF3026.2769412459443
aF9964.818864695259
aF14499.144515195843
aF1631.4322615729711
aF1730.6361049150098
aF369.53614415429035
aF4048.1120442965844
aF2180.0872034881354
aF10994.069221917276
aF3477.027401051758
aF13607.201150632662
aF3288.8404030032684
aF8406.179904827797
aF8356.315954618269
aF802.3579498935654
aF4617.203776347153
aF70530.39767656934
aF370.49452197385415
aF706.5527065527062
aF294.4083443736465
asS'Bacteria.Firmicutes.Clostridia.Clostridiales'
p417
(lp418
F215767.5563127007
aF557.7846951076885
aF45499.101454010815
aF179.77674996322722
aF149450.84263417707
aF1696.9653205278678
aF857.5319893060713
aF3142.000466811497
aF1995.397711729402
aF247.59369874036736
aF13080.601092896177
aF205.3081488670722
aF809.1550109813893
aF164230.8827871277
aF152.13463915565316
aF829.0265112094959
aF2922.9828019849037
aF5307.284055072687
aF162719.08214260545
aF744.4803759625901
aF620.0248009920401
aF88.51907586084805
aF449.76473844450584
aF468.65657169637547
aF385.03497401013897
aF1551.2651195941526
aF20659.587468829017
aF65.49860815457673
aF487.99714709360103
aF45900.734995862615
aF105.85557770681505
aF250.71225071225098
aF336.46667928416656
asS'Bacteria.Proteobacteria.Alphaproteobacteria.Rhizobiales.Xanthobacteraceae.Ancylobacter'
p419
(lp420
F18.928639030853716
aF17.993054680893188
aF0.0
aF98.0600454344877
aF0.0
aF36.10564511761417
aF0.0
aF107.72573029067988
aF0.0
aF0.0
aF34.153005464480884
aF0.0
aF0.0
aF0.0
aF0.0
aF0.0
aF0.0
aF0.0
aF0.0
aF0.0
aF0.0
aF0.0
aF17.29864378632715
aF1276.685143586682
aF0.0
aF188.66737941010027
aF1717.5036744670003
aF0.0
aF300.3059366729853
aF0.0
aF0.0
aF0.0
aF0.0
asS'Bacteria.Proteobacteria.Betaproteobacteria.Burkholderiales'
p421
(lp422
F10846.110164679174
aF2662.9720927721874
aF46275.11844469858
aF20837.759654828606
aF7003.423896126996
aF884.5883053815459
aF24582.583693440745
aF65209.97540262486
aF2011.4896287594797
aF882.0525517625582
aF113797.81420765062
aF429.28067490387866
aF1403.6362435391402
aF17911.622871764608
aF684.6058762004371
aF2010.8302612315465
aF5744.0010876215
aF12287.516344896589
aF25269.23347645523
aF36363.21336342272
aF91023.64094563789
aF3611.5782951225992
aF12731.801826736819
aF12944.61772168261
aF40284.28415581078
aF27293.880887994503
aF14268.492064802767
aF28835.762240052387
aF2909.213761519547
aF140038.6156766665
aF125580.00035285164
aF143566.9515669514
aF3112.3167833785433
asS'Bacteria.Actinobacteria.Actinobacteria.Actinomycetales.Microbacteriaceae.Pseudoclavibacter'
p423
(lp424
F75.71455612341475
aF521.7985857459017
aF61.264499264826064
aF49.0300227172438
aF0.0
aF36.10564511761417
aF1361.9625712508218
aF89.7714419089
aF257.470672481213
aF46.423818513818794
aF0.0
aF74.65750867893536
aF99.08020542629258
aF0.0
aF38.033659788913184
aF0.0
aF220.92311875467306
aF173.06361049150095
aF35.19391849088472
aF209.3851057394788
aF20.00080003200127
aF1062.228910330181
aF570.8552449487964
aF64.64228575122414
aF256.68998267342596
aF125.77825294006651
aF115.60120885835538
aF180.12117242508634
aF3415.9800296552116
aF243.37611344571926
aF17.642596284469207
aF136.75213675213718
aF0.0
asS'Bacteria.Proteobacteria.Alphaproteobacteria.Sphingomonadales.Sphingomonadaceae.Sphingobium'
p425
(lp426
F0.0
aF323.874984256077
aF20.421499754942023
aF62170.068805465235
aF44.46618346747294
aF90.26411279403533
aF33.62870546298317
aF502.72007468984
aF1206.8937772556878
aF108.32224319891029
aF1092.8961748633872
aF18.664377169733893
aF0.0
aF172.22714299773602
aF57.05048968336978
aF70.55544776251034
aF16.994086058051828
aF57.68787016383355
aF0.0
aF860.8054347067444
aF3800.152006080243
aF318.6686730990533
aF103.79186271796272
aF50517.94631458163
aF144.38811525380171
aF8028.845146007595
aF39832.87368090766
aF32.749304077288365
aF152836.95264550726
aF16.22507422971465
aF35.28519256893841
aF45.58404558404551
aF42.05833491052087
asS'Bacteria.Proteobacteria.Unassigned'
p427
(lp428
F113.57183418512166
aF17.993054680893188
aF367.58699558895603
aF147.09006815173183
aF222.33091733736472
aF36.10564511761417
aF168.14352731491587
aF17.954288381779996
aF16.091917030075837
aF0.0
aF136.6120218579231
aF0.0
aF33.026735142097486
aF270.642653282157
aF38.033659788913184
aF52.916585821882705
aF1818.3672082115434
aF3692.023690485344
aF8640.106989512213
aF116.32505874415456
aF860.0344013760548
aF0.0
aF726.5430390257401
aF16.160571437805984
aF705.897452351922
aF20.96304215667775
aF0.0
aF180.12117242508634
aF131.3838472944309
aF0.0
aF12579.171150826536
aF5766.381766381764
aF42.05833491052087
asS'Bacteria.Proteobacteria.Alphaproteobacteria.Rhizobiales.Bradyrhizobiaceae.Bradyrhizobium'
p429
(lp430
F75.71455612341475
aF0.0
aF20.421499754942023
aF261.4934544919672
aF44.46618346747294
aF270.7923383821063
aF33.62870546298317
aF251.36003734492
aF5245.9649518047145
aF417.81436662436926
aF0.0
aF0.0
aF82.56683785524382
aF73.81163271331562
aF57.05048968336978
aF70.55544776251034
aF16.994086058051828
aF0.0
aF0.0
aF0.0
aF0.0
aF0.0
aF17.29864378632715
aF16.160571437805984
aF16.043123917089147
aF0.0
aF16.51445840833647
aF65.49860815457673
aF0.0
aF0.0
aF0.0
aF22.792022792022756
aF0.0
asS'Bacteria.Firmicutes.Clostridia.Clostridiales.Lachnospiraceae.Anaerosporobacter'
p431
(lp432
F0.0
aF0.0
aF0.0
aF16.343340905747898
aF32371.381564320298
aF18.052822558807087
aF0.0
aF17.954288381779996
aF0.0
aF0.0
aF0.0
aF0.0
aF0.0
aF24.6038775711052
aF0.0
aF0.0
aF0.0
aF0.0
aF0.0
aF0.0
aF0.0
aF0.0
aF0.0
aF0.0
aF0.0
aF20.96304215667775
aF0.0
aF0.0
aF0.0
aF0.0
aF0.0
aF0.0
aF0.0
asS'Bacteria.Proteobacteria.Gammaproteobacteria.Enterobacteriales.Enterobacteriaceae.Raoultella'
p433
(lp434
F416.43005867878156
aF17.993054680893188
aF449.2729946087239
aF0.0
aF133.39855040241883
aF36.10564511761417
aF0.0
aF0.0
aF0.0
aF0.0
aF0.0
aF18.664377169733893
aF0.0
aF98.4155102844208
aF0.0
aF0.0
aF305.8935490449317
aF3884.316591031456
aF2745.125642289015
aF0.0
aF0.0
aF0.0
aF0.0
aF0.0
aF0.0
aF0.0
aF0.0
aF32.749304077288365
aF0.0
aF0.0
aF0.0
aF569.80056980057
aF21.029167455260435
asS'Bacteria.Proteobacteria.Gammaproteobacteria.Enterobacteriales.Enterobacteriaceae.Erwinia'
p435
(lp436
F56.78591709256104
aF0.0
aF0.0
aF0.0
aF0.0
aF36.10564511761417
aF0.0
aF0.0
aF0.0
aF0.0
aF0.0
aF0.0
aF0.0
aF73.81163271331562
aF323.2861082057617
aF0.0
aF16.994086058051828
aF2576.7248673179033
aF123.17871471809678
aF0.0
aF0.0
aF0.0
aF172.98643786327156
aF0.0
aF16.043123917089147
aF0.0
aF0.0
aF474.86490912068086
aF375.38242084123135
aF0.0
aF652.7760625253612
aF91.16809116809114
aF21.029167455260435
asS'Bacteria.Proteobacteria.Betaproteobacteria.Burkholderiales.Comamonadaceae'
p437
(lp438
F8025.742949081965
aF305.88192957518413
aF45254.043456951484
aF32.6866818114959
aF6447.596602783582
aF740.1657249110899
aF0.0
aF45280.71529884907
aF337.93025763159216
aF30.9492123425459
aF105976.77595628402
aF37.32875433946768
aF0.0
aF17345.733687629196
aF494.43757725587125
aF952.4985447938894
aF475.83440962544995
aF57.68787016383355
aF422.32702189061666
aF9701.509899262495
aF1360.0544021760907
aF3540.7630344339195
aF1418.4887904788304
aF4137.106288078341
aF1283.44991336713
aF22241.787728235166
aF13855.630604594295
aF3733.420664810873
aF412.9206629253549
aF32.4501484594292
aF493.99269596513824
aF364.6723646723648
aF2965.112611191721
asS'Bacteria.Proteobacteria.Gammaproteobacteria.Pseudomonadales.Unassigned.Unassigned'
p439
(lp440
F18.928639030853716
aF863.6666246828717
aF20.421499754942023
aF0.0
aF66.69927520120953
aF0.0
aF151.32917458342487
aF35.90857676355999
aF0.0
aF61.8984246850918
aF102.45901639344265
aF55.99313150920157
aF0.0
aF98.4155102844208
aF342.3029381002191
aF687.9156156844758
aF0.0
aF76.91716021844478
aF0.0
aF116.32505874415456
aF20.00080003200127
aF867.4869434363106
aF17.29864378632715
aF0.0
aF449.20746967849595
aF20.96304215667775
aF16.51445840833647
aF442.1156050433928
aF319.0750577150476
aF0.0
aF158.78336656022307
aF205.12820512820522
aF42.05833491052087
asS'Bacteria.Firmicutes.Bacilli.Lactobacillales.Streptococcaceae.Lactococcus'
p441
(lp442
F6416.8086314594
aF0.0
aF0.0
aF0.0
aF2156.6098981724426
aF0.0
aF0.0
aF0.0
aF0.0
aF0.0
aF34.153005464480884
aF130.65064018813703
aF66.05347028419507
aF73.81163271331562
aF0.0
aF0.0
aF118.95860240636249
aF18479.34774248136
aF0.0
aF0.0
aF0.0
aF0.0
aF0.0
aF0.0
aF0.0
aF0.0
aF0.0
aF32.749304077288365
aF18.76912104206157
aF0.0
aF0.0
aF0.0
aF0.0
asS'Bacteria.Bacteroidetes.Flavobacteriia.Flavobacteriales'
p443
(lp444
F9899.678213136476
aF152437.15925652732
aF31592.060120895287
aF131514.86426855347
aF68611.3210903108
aF17511.23788204283
aF5851.394750559079
aF121388.94374921409
aF4875.850860112962
aF10956.021169261276
aF80020.49180327868
aF130.65064018813703
aF214.67377842363427
aF5388.249188072043
aF5628.981648759154
aF109837.193304288
aF679.7634423220711
aF7287.900930697641
aF19374.25212923201
aF105157.85310471582
aF247209.88839553637
aF185978.57838364126
aF115900.91336839159
aF192019.9098240115
aF161441.9559776675
aF44693.205878037086
aF52136.14519511838
aF10381.529392500397
aF94183.44938906505
aF162120.94170330846
aF63795.628164640686
aF46017.094017094045
aF231.3208420078644
asS'Bacteria.Firmicutes.Bacilli.Lactobacillales.Carnobacteriaceae.Desemzia'
p445
(lp446
F0.0
aF35.986109361786376
aF4390.62244731253
aF0.0
aF2089.910622971227
aF209683.5340205441
aF67.25741092596634
aF143.63430705423997
aF225.28683842106108
aF0.0
aF0.0
aF541.2669379222814
aF16.513367571048743
aF319.8504084243681
aF65608.0631358752
aF17.638861940627535
aF16.994086058051828
aF38.45858010922233
aF0.0
aF0.0
aF20.00080003200127
aF0.0
aF345.9728757265431
aF16.160571437805984
aF48.12937175126734
aF20.96304215667775
aF16.51445840833647
aF81.87326019322094
aF0.0
aF1687.407719890317
aF829.2020253700534
aF22.792022792022756
aF0.0
asS'Bacteria.Proteobacteria.Alphaproteobacteria.Rhizobiales.Unassigned'
p447
(lp448
F94.64319515426847
aF107.95832808535933
aF0.0
aF0.0
aF377.96255947352057
aF90.26411279403533
aF0.0
aF2818.8232759394555
aF0.0
aF0.0
aF2800.5464480874316
aF18.664377169733893
aF16.513367571048743
aF344.4542859954731
aF0.0
aF264.58292910941356
aF135.95268846441442
aF19.22929005461122
aF17.59695924544241
aF348.97517623246364
aF0.0
aF70.81526068867839
aF0.0
aF3490.6834305660977
aF0.0
aF817.5586441104338
aF198.17350090003822
aF49.123956115932586
aF18.76912104206157
aF0.0
aF17.642596284469207
aF0.0
aF0.0
asS'Bacteria.Firmicutes.Bacilli.Lactobacillales.Carnobacteriaceae.Unassigned'
p449
(lp450
F0.0
aF71.97221872357265
aF122.52899852965236
aF0.0
aF266.79710080483767
aF34101.78181358656
aF33.62870546298317
aF0.0
aF0.0
aF0.0
aF0.0
aF18.664377169733893
aF0.0
aF0.0
aF551.4880669392414
aF17.638861940627535
aF390.86397933519135
aF1461.4260441504525
aF0.0
aF0.0
aF0.0
aF53.111445516508844
aF34.5972875726543
aF0.0
aF128.34499133671298
aF0.0
aF16.51445840833647
aF98.24791223186509
aF0.0
aF0.0
aF705.7038513787693
aF0.0
aF0.0
asS'Bacteria.Proteobacteria.Alphaproteobacteria.Rhizobiales.Rhizobiaceae.Kaistia'
p451
(lp452
F0.0
aF0.0
aF0.0
aF0.0
aF22.23309173373647
aF18.052822558807087
aF0.0
aF1454.2973589241737
aF0.0
aF0.0
aF0.0
aF18.664377169733893
aF0.0
aF0.0
aF0.0
aF0.0
aF0.0
aF0.0
aF0.0
aF884.0704464555748
aF0.0
aF0.0
aF0.0
aF4088.624573764926
aF0.0
aF1865.7107519443266
aF4145.129060492463
aF0.0
aF18.76912104206157
aF0.0
aF17.642596284469207
aF0.0
aF0.0
asS'Bacteria.Bacteroidetes.Cytophagia.Cytophagales'
p453
(lp454
F18.928639030853716
aF11803.443870665915
aF0.0
aF163.433409057479
aF0.0
aF18.052822558807087
aF0.0
aF5583.783686733579
aF64.36766812030314
aF15.474606171272898
aF0.0
aF0.0
aF16.513367571048743
aF0.0
aF19.016829894456592
aF0.0
aF0.0
aF57.68787016383355
aF0.0
aF209.3851057394788
aF0.0
aF35.407630344339196
aF17.29864378632715
aF3927.0188593868656
aF0.0
aF293.48259019348853
aF20610.04409360396
aF0.0
aF544.3045102197858
aF0.0
aF0.0
aF0.0
aF0.0
asS'Bacteria.Actinobacteria.Actinobacteria.Actinomycetales.Streptomycetaceae'
p455
(lp456
F56.78591709256104
aF53.97916404267946
aF20.421499754942023
aF16.343340905747898
aF0.0
aF108.3169353528419
aF0.0
aF0.0
aF949.4231047744717
aF15.474606171272898
aF0.0
aF354.6231662249425
aF115.59357299734162
aF0.0
aF760.6731957782637
aF493.8881343375718
aF33.988172116103556
aF0.0
aF0.0
aF23.26501174883091
aF0.0
aF0.0
aF34.5972875726543
aF242.40857156709026
aF1331.5792851183971
aF62.88912647003336
aF115.60120885835538
aF65.49860815457673
aF0.0
aF178.47581652686046
aF70.57038513787694
aF68.37606837606837
aF0.0
asS'Bacteria.Bacteroidetes.Cytophagia.Cytophagales.Cytophagaceae'
p457
(lp458
F18.928639030853716
aF53.97916404267946
aF0.0
aF163.433409057479
aF0.0
aF0.0
aF0.0
aF5565.829398351793
aF64.36766812030314
aF15.474606171272898
aF0.0
aF0.0
aF16.513367571048743
aF0.0
aF19.016829894456592
aF0.0
aF0.0
aF57.68787016383355
aF0.0
aF209.3851057394788
aF0.0
aF35.407630344339196
aF17.29864378632715
aF1050.4371434573904
aF0.0
aF293.48259019348853
aF16910.80541013659
aF0.0
aF544.3045102197858
aF0.0
aF0.0
aF0.0
aF0.0
asS'Bacteria.Unassigned.Unassigned.Unassigned'
p459
(lp460
F4523.944728374028
aF2932.867912985591
aF7760.169906877964
aF2304.4110677104604
aF8159.544666281295
aF6679.544346758609
aF5918.652161485041
aF6284.000933622994
aF7788.4878425566885
aF4255.516697100057
aF4849.726775956288
aF1698.4583224457826
aF5119.1439470251125
aF8045.467965751407
aF6998.19340116003
aF5450.408339653925
aF2753.041941404395
aF4076.609491577568
aF2340.3955796438386
aF3443.2217388269764
aF3040.1216048641945
aF4018.7660440824957
aF34.5972875726543
aF1616.0571437805982
aF0.0
aF31968.639288933584
aF9330.669000710124
aF4503.029310627154
aF3340.903545486966
aF2579.786802524619
aF1570.1910693177608
aF0.0
aF1135.5750425840658
asS'Bacteria.Firmicutes.Bacilli.Bacillales.Bacillaceae_1.Bacillus'
p461
(lp462
F170.35775127768304
aF107.95832808535933
aF469.6944943636666
aF719.1069998529099
aF4001.9565120725647
aF6896.178217464302
aF50.44305819447476
aF7630.572562256491
aF1464.3644497368966
aF0.0
aF4713.114754098361
aF153309.19407219393
aF16.513367571048743
aF910.3434701308933
aF1179.0434534563105
aF105.83317164376582
aF101.96451634831057
aF249.98077070994583
aF211.16351094530833
aF0.0
aF20.00080003200127
aF2602.460830308928
aF1660.6698034874075
aF500.97771457198655
aF80.21561958544564
aF62.88912647003336
aF330.2891681667304
aF16.374652038644232
aF75.07648416824638
aF584.1026722697262
aF246.99634798256912
aF136.75213675213718
aF84.11666982104174
asS'Bacteria.Unassigned'
p463
(lp464
F4523.944728374028
aF2932.867912985591
aF7760.169906877964
aF2304.4110677104604
aF8159.544666281295
aF6679.544346758609
aF5918.652161485041
aF6284.000933622994
aF7788.4878425566885
aF4255.516697100057
aF4849.726775956288
aF1698.4583224457826
aF5119.1439470251125
aF8045.467965751407
aF6998.19340116003
aF5450.408339653925
aF2753.041941404395
aF4076.609491577568
aF2340.3955796438386
aF3443.2217388269764
aF3040.1216048641945
aF4018.7660440824957
aF34.5972875726543
aF1616.0571437805982
aF0.0
aF31968.639288933584
aF9330.669000710124
aF4503.029310627154
aF3340.903545486966
aF2579.786802524619
aF1570.1910693177608
aF0.0
aF1135.5750425840658
asS'Bacteria.Actinobacteria.Actinobacteria.Actinomycetales.Dermacoccaceae.Dermacoccus'
p465
(lp466
F18.928639030853716
aF0.0
aF81.68599901976799
aF32.6866818114959
aF22.23309173373647
aF36.10564511761417
aF0.0
aF0.0
aF0.0
aF0.0
aF0.0
aF55.99313150920157
aF0.0
aF369.05816356657806
aF399.35342778358824
aF317.49951493129646
aF186.9349466385692
aF57.68787016383355
aF211.16351094530833
aF116.32505874415456
aF0.0
aF601.9297158537669
aF51.895931358981464
aF0.0
aF224.6037348392475
aF0.0
aF0.0
aF65.49860815457673
aF0.0
aF0.0
aF14996.206841798807
aF273.5042735042733
aF357.49584673942763
asS'Bacteria.Proteobacteria.Betaproteobacteria.Burkholderiales.Oxalobacteraceae.Janthinobacterium'
p467
(lp468
F18.928639030853716
aF413.8402576605424
aF61.264499264826064
aF7583.310180267052
aF222.33091733736472
aF72.21129023522823
aF672.5741092596635
aF8725.784153545075
aF1239.0776113158322
aF46.423818513818794
aF0.0
aF205.3081488670722
aF577.9678649867061
aF98.4155102844208
aF152.13463915565316
aF793.7487873282417
aF4962.273128951125
aF10326.128759326182
aF21468.290279439694
aF15773.67796570732
aF56962.27849113962
aF17.703815172169648
aF9168.281206753385
aF32.32114287561207
aF31203.87601873833
aF0.0
aF16.51445840833647
aF21270.67299819882
aF1858.1429831640955
aF0.0
aF113971.17199767164
aF128911.68091168045
aF63.08750236578131
asS'Bacteria.Bacteroidetes.Sphingobacteriia'
p469
(lp470
F11413.969335604745
aF31235.942926030537
aF278876.0006534881
aF132135.91122297168
aF214771.66614789463
aF8502.879425198127
aF113732.28187580894
aF218306.1924340623
aF1850.570458458715
aF2986.598991055683
aF70081.96721311472
aF653.2532009406841
aF379.80745413412177
aF143711.24889282545
aF7796.900256727202
aF104704.2844795651
aF24964.31241927809
aF25863.39512345209
aF7302.738086858586
aF335388.4093711468
aF263090.52362094494
aF33318.580154023155
aF66150.013838915
aF91856.68805248945
aF22813.322210100774
aF228287.52908622078
aF77006.91955807315
aF91026.69068282295
aF66611.6105782766
aF48.67522268914385
aF23941.00315802478
aF141629.62962962978
aF50932.6435766408
asS'Bacteria.Firmicutes.Negativicutes.Selenomonadales'
p471
(lp472
F0.0
aF0.0
aF326.7439960790726
aF16.343340905747898
aF155.63164213615585
aF0.0
aF0.0
aF0.0
aF0.0
aF0.0
aF0.0
aF0.0
aF0.0
aF98.4155102844208
aF0.0
aF0.0
aF0.0
aF19.22929005461122
aF2058.844231716759
aF23.26501174883091
aF0.0
aF0.0
aF4722.529753667309
aF0.0
aF0.0
aF20.96304215667775
aF132.11566726669216
aF0.0
aF0.0
aF16.22507422971465
aF0.0
aF16957.264957264942
aF33015.79290475888
asS'Bacteria.Actinobacteria'
p473
(lp474
F85746.7348097672
aF141047.55564352171
aF27201.43767358274
aF18075.735041757278
aF7625.950464671615
aF93206.72287112082
aF207169.64000470843
aF96701.79722426705
aF658175.4984471304
aF648726.4399121046
aF19262.295081967197
aF135596.70013811605
aF522020.5756559935
aF12498.769806121447
aF95122.1831320719
aF312578.2724498614
aF9278.770987696278
aF9941.54295823398
aF4399.239811360598
aF52602.191564106746
aF22800.91203648146
aF105426.21935027046
aF108964.15721007428
aF35520.9360202977
aF62038.760187383676
aF59451.18755633821
aF38511.717008240696
aF13640.085148190585
aF64096.548358640386
aF76549.90021579346
aF43206.71830066511
aF45424.50142450144
aF6287.721069122875
asS'Bacteria.Proteobacteria.Gammaproteobacteria.Enterobacteriales.Enterobacteriaceae.Escherichia_Shigella'
p475
(lp476
F1135.7183418512166
aF0.0
aF694.3309916680287
aF0.0
aF10783.049490862202
aF704.0600797934759
aF0.0
aF412.9486327809394
aF0.0
aF0.0
aF68.30601092896177
aF0.0
aF0.0
aF934.9473477019982
aF152.13463915565316
aF0.0
aF33.988172116103556
aF134.60503038227853
aF369.53614415429035
aF0.0
aF0.0
aF53.111445516508844
aF0.0
aF16.160571437805984
aF0.0
aF0.0
aF0.0
aF0.0
aF18.76912104206157
aF0.0
aF88.21298142234615
aF0.0
aF147.20417218682326
asS'Bacteria.Proteobacteria.Alphaproteobacteria.Rhizobiales.Unassigned.Unassigned'
p477
(lp478
F94.64319515426847
aF107.95832808535933
aF0.0
aF0.0
aF377.96255947352057
aF90.26411279403533
aF0.0
aF2818.8232759394555
aF0.0
aF0.0
aF2800.5464480874316
aF18.664377169733893
aF16.513367571048743
aF344.4542859954731
aF0.0
aF264.58292910941356
aF135.95268846441442
aF19.22929005461122
aF17.59695924544241
aF348.97517623246364
aF0.0
aF70.81526068867839
aF0.0
aF3490.6834305660977
aF0.0
aF817.5586441104338
aF198.17350090003822
aF49.123956115932586
aF18.76912104206157
aF0.0
aF17.642596284469207
aF0.0
aF0.0
asS'Bacteria.Actinobacteria.Actinobacteria.Actinomycetales.Nocardiaceae'
p479
(lp480
F3028.5822449365883
aF16139.77004876113
aF14274.628328704515
aF751.7936816644053
aF3423.896126995415
aF1372.014514469335
aF2219.494560556894
aF39463.52586315245
aF12245.94885988771
aF6375.53774256445
aF11851.092896174901
aF14035.61163163981
aF249335.3369552648
aF6372.404290916254
aF16335.456879338248
aF71948.91785581988
aF1138.603765889466
aF1615.2603645873423
aF739.0722883085797
aF2559.1512923714045
aF4680.187207488304
aF5913.07426750465
aF3165.6518128978723
aF4007.821716575901
aF1267.4067894500442
aF35658.134708508864
aF3468.036265750661
aF360.24234485017166
aF3190.7505771504757
aF194.7008907565754
aF970.3427956458074
aF866.0968660968657
aF252.35000946312542
asS'Bacteria.Firmicutes.Bacilli.Bacillales.Staphylococcaceae'
p481
(lp482
F1343.933371190607
aF3454.6664987314844
aF285.9009965691881
aF490.30022717243804
aF5247.009649161813
aF32657.556008881984
aF2303.566324214349
aF215.45146058135998
aF6163.204222519028
aF1609.3590418123833
aF6454.918032786885
aF387621.78506103274
aF3335.700249351851
aF492.0775514221041
aF108205.76209945758
aF299.86065299066877
aF1206.580110121678
aF865.3180524575027
aF70.38783698176955
aF23.26501174883091
aF200.00800032001268
aF5859.962821988141
aF830.3349017437038
aF96.9634286268362
aF2037.4767374703201
aF146.74129509674478
aF231.20241771671076
aF6844.604552153269
aF431.6897839674162
aF259.6011876754332
aF1711.3318395935107
aF797.7207977207976
aF168.23333964208328
asS'Bacteria'
p483
(lp484
F1000000.0
aF1000000.0
aF1000000.0
aF1000000.0
aF1000000.0
aF1000000.0
aF1000000.0
aF1000000.0
aF1000000.0
aF1000000.0
aF1000000.0
aF1000000.0
aF1000000.0
aF1000000.0
aF1000000.0
aF1000000.0
aF1000000.0
aF1000000.0
aF1000000.0
aF1000000.0
aF1000000.0
aF1000000.0
aF1000000.0
aF1000000.0
aF1000000.0
aF1000000.0
aF1000000.0
aF1000000.0
aF1000000.0
aF1000000.0
aF1000000.0
aF1000000.0
aF1000000.0
assS'subclass_sl'
p485
(dp486
g10
(I16
I33
tp487
sg12
(I0
I16
tp488
ssS'norm'
p489
F1000000.0
sS'cls'
p490
(dp491
S'class'
p492
(S'G1'
p493
S'G1'
p494
S'G1'
p495
S'G1'
p496
S'G1'
p497
S'G1'
p498
S'G1'
p499
S'G1'
p500
S'G1'
p501
S'G1'
p502
S'G1'
p503
S'G1'
p504
S'G1'
p505
S'G1'
p506
S'G1'
p507
g5
S'G2'
p508
S'G2'
p509
S'G2'
p510
S'G2'
p511
S'G2'
p512
S'G2'
p513
S'G2'
p514
S'G2'
p515
S'G2'
p516
S'G2'
p517
S'G2'
p518
S'G2'
p519
S'G2'
p520
S'G2'
p521
S'G2'
p522
S'G2'
p523
g3
tp524
sS'subclass'
p525
(lp526
S'G1_subcl'
p527
aS'G1_subcl'
p528
aS'G1_subcl'
p529
aS'G1_subcl'
p530
aS'G1_subcl'
p531
aS'G1_subcl'
p532
aS'G1_subcl'
p533
aS'G1_subcl'
p534
aS'G1_subcl'
p535
aS'G1_subcl'
p536
aS'G1_subcl'
p537
aS'G1_subcl'
p538
aS'G1_subcl'
p539
aS'G1_subcl'
p540
aS'G1_subcl'
p541
ag12
aS'G2_subcl'
p542
aS'G2_subcl'
p543
aS'G2_subcl'
p544
aS'G2_subcl'
p545
aS'G2_subcl'
p546
aS'G2_subcl'
p547
aS'G2_subcl'
p548
aS'G2_subcl'
p549
aS'G2_subcl'
p550
aS'G2_subcl'
p551
aS'G2_subcl'
p552
aS'G2_subcl'
p553
aS'G2_subcl'
p554
aS'G2_subcl'
p555
aS'G2_subcl'
p556
aS'G2_subcl'
p557
ag10
ass.